(dp0
S'METTS MARK'
p1
(dp2
S'to_messages'
p3
I807
sS'deferral_payments'
p4
I0
sS'loan_advances_ratio'
p5
F0.0
sS'expenses'
p6
I94299
sS'poi'
p7
I00
sS'deferred_income'
p8
I0
sS'email_address'
p9
S'mark.metts@enron.com'
p10
sS'long_term_incentive'
p11
I0
sS'restricted_stock_deferred'
p12
S'NaN'
p13
sS'shared_receipt_with_poi'
p14
I702
sS'loan_advances'
p15
I0
sS'from_messages'
p16
I29
sS'other'
p17
I1740
sS'director_fees'
p18
I0
sS'director_fees_ratio'
p19
F0.0
sS'bonus'
p20
I600000
sS'expenses_ratio'
p21
F0.08880825219174121
sS'total_stock_value'
p22
I585062
sS'from_poi_to_this_person'
p23
I38
sS'ratio_to_poi'
p24
F0.0012391573729863693
sS'deferred_income_ratio'
p25
F0.0
sS'from_this_person_to_poi'
p26
I1
sS'deferral_payments_ratio'
p27
F0.0
sS'restricted_stock'
p28
I585062
sS'other_ratio'
p29
F0.0016386850211946014
sS'salary'
p30
I365788
sS'bonus_ratio'
p31
F0.5650638004119315
sS'long_term_incentive_ratio'
p32
F0.0
sS'total_payments'
p33
I1061827
sS'salary_ratio'
p34
F0.34448926237513267
sS'exercised_stock_options'
p35
g13
sS'ratio_from_poi'
p36
F1.3103448275862069
ssS'BAXTER JOHN C'
p37
(dp38
g3
g13
sg4
I1295738
sS'loan_advances_ratio'
p39
F0.0
sg6
I11200
sg7
I00
sg8
I-1386055
sg9
g13
sg11
I1586055
sg12
g13
sg14
g13
sg15
I0
sg16
g13
sg17
I2660303
sg18
I0
sS'director_fees_ratio'
p40
F0.0
sg20
I1200000
sS'expenses_ratio'
p41
F0.001987809403864834
sg22
I10623258
sg23
g13
sg24
S'NaN'
p42
sS'deferred_income_ratio'
p43
F-0.24600117529231003
sg26
g13
sS'deferral_payments_ratio'
p44
F0.2299714447629475
sg28
I3942714
sS'other_ratio'
p45
F0.4721585107615919
sg30
I267102
sS'bonus_ratio'
p46
F0.21297957898551792
sS'long_term_incentive_ratio'
p47
F0.2814977717898964
sg33
I5634343
sS'salary_ratio'
p48
F0.047406059588491506
sg35
I6680544
sg36
g42
ssS'ELLIOTT STEVEN'
p49
(dp50
g3
g13
sg4
I0
sS'loan_advances_ratio'
p51
F0.0
sg6
I78552
sg7
I00
sg8
I-400729
sg9
S'steven.elliott@enron.com'
p52
sg11
I0
sg12
g13
sg14
g13
sg15
I0
sg16
g13
sg17
I12961
sg18
I0
sS'director_fees_ratio'
p53
F0.0
sg20
I350000
sS'expenses_ratio'
p54
F0.371009564293305
sg22
I6678735
sg23
g13
sg24
g42
sS'deferred_income_ratio'
p55
F-1.8926862675640572
sg26
g13
sS'deferral_payments_ratio'
p56
F0.0
sg28
I1788391
sS'other_ratio'
p57
F0.06121620025977093
sg30
I170941
sS'bonus_ratio'
p58
F1.6530877317274766
sS'long_term_incentive_ratio'
p59
F0.0
sg33
I211725
sS'salary_ratio'
p60
F0.8073727712835046
sg35
I4890344
sg36
g42
ssS'CORDES WILLIAM R'
p61
(dp62
g3
I764
sg4
g13
sS'loan_advances_ratio'
p63
g42
sg6
g13
sg7
I00
sg8
g13
sg9
S'bill.cordes@enron.com'
p64
sg11
g13
sg12
g13
sg14
I58
sg15
g13
sg16
I12
sg17
g13
sg18
g13
sS'director_fees_ratio'
p65
g42
sg20
g13
sS'expenses_ratio'
p66
g42
sg22
I1038185
sg23
I10
sg24
F0.0
sS'deferred_income_ratio'
p67
g42
sg26
I0
sS'deferral_payments_ratio'
p68
g42
sg28
I386335
sS'other_ratio'
p69
g42
sg30
g13
sS'bonus_ratio'
p70
g42
sS'long_term_incentive_ratio'
p71
g42
sg33
g13
sS'salary_ratio'
p72
g42
sg35
I651850
sg36
F0.8333333333333334
ssS'HANNON KEVIN P'
p73
(dp74
g3
I1045
sg4
I0
sS'loan_advances_ratio'
p75
F0.0
sg6
I34039
sg7
I01
sg8
I-3117011
sg9
S'kevin.hannon@enron.com'
p76
sg11
I1617011
sg12
g13
sg14
I1035
sg15
I0
sg16
I32
sg17
I11350
sg18
I0
sS'director_fees_ratio'
p77
F0.0
sg20
I1500000
sS'expenses_ratio'
p78
F0.11791175064603959
sg22
I6391065
sg23
I32
sg24
F0.020095693779904306
sS'deferred_income_ratio'
p79
F-10.797386051087356
sg26
I21
sS'deferral_payments_ratio'
p80
F0.0
sg28
I853064
sS'other_ratio'
p81
F0.039316618285864725
sg30
I243293
sS'bonus_ratio'
p82
F5.196028848352166
sS'long_term_incentive_ratio'
p83
F5.60135720273519
sg33
I288682
sS'salary_ratio'
p84
F0.8427716310680957
sg35
I5538001
sg36
F1.0
ssS'MORDAUNT KRISTINA M'
p85
(dp86
g3
g13
sg4
I0
sS'loan_advances_ratio'
p87
F0.0
sg6
I35018
sg7
I00
sg8
I0
sg9
S'kristina.mordaunt@enron.com'
p88
sg11
I0
sg12
g13
sg14
g13
sg15
I0
sg16
g13
sg17
I1411
sg18
I0
sS'director_fees_ratio'
p89
F0.0
sg20
I325000
sS'expenses_ratio'
p90
F0.05571483575753912
sg22
I208510
sg23
g13
sg24
g42
sS'deferred_income_ratio'
p91
F0.0
sg26
g13
sS'deferral_payments_ratio'
p92
F0.0
sg28
I208510
sS'other_ratio'
p93
F0.002244949261919233
sg30
I267093
sS'bonus_ratio'
p94
F0.5170861163173286
sS'long_term_incentive_ratio'
p95
F0.0
sg33
I628522
sS'salary_ratio'
p96
F0.42495409866321304
sg35
g13
sg36
g42
ssS'MEYER ROCKFORD G'
p97
(dp98
g3
I232
sg4
I1848227
sS'loan_advances_ratio'
p99
F0.0
sg6
I0
sg7
I00
sg8
I0
sg9
S'rockford.meyer@enron.com'
p100
sg11
I0
sg12
g13
sg14
I22
sg15
I0
sg16
I28
sg17
I0
sg18
I0
sS'director_fees_ratio'
p101
F0.0
sg20
I0
sS'expenses_ratio'
p102
F0.0
sg22
I955873
sg23
I0
sg24
F0.0
sS'deferred_income_ratio'
p103
F0.0
sg26
I0
sS'deferral_payments_ratio'
p104
F1.0
sg28
I462384
sS'other_ratio'
p105
F0.0
sg30
I0
sS'bonus_ratio'
p106
F0.0
sS'long_term_incentive_ratio'
p107
F0.0
sg33
I1848227
sS'salary_ratio'
p108
F0.0
sg35
I493489
sg36
F0.0
ssS'MCMAHON JEFFREY'
p109
(dp110
g3
I2355
sg4
I0
sS'loan_advances_ratio'
p111
F0.0
sg6
I137108
sg7
I00
sg8
I0
sg9
S'jeffrey.mcmahon@enron.com'
p112
sg11
I694862
sg12
g13
sg14
I2228
sg15
I0
sg16
I48
sg17
I297353
sg18
I0
sS'director_fees_ratio'
p113
F0.0
sg20
I2600000
sS'expenses_ratio'
p114
F0.033442843514918275
sg22
I1662855
sg23
I58
sg24
F0.011040339702760084
sS'deferred_income_ratio'
p115
F0.0
sg26
I26
sS'deferral_payments_ratio'
p116
F0.0
sg28
I558801
sS'other_ratio'
p117
F0.07252917297088057
sg30
I370448
sS'bonus_ratio'
p118
F0.6341817628350461
sS'long_term_incentive_ratio'
p119
F0.16948800311041762
sg33
I4099771
sS'salary_ratio'
p120
F0.09035821756873738
sg35
I1104054
sg36
F1.2083333333333333
ssS'HORTON STANLEY C'
p121
(dp122
g3
I2350
sg4
I3131860
sS'loan_advances_ratio'
p123
F0.0
sg6
I0
sg7
I00
sg8
I0
sg9
S'stanley.horton@enron.com'
p124
sg11
I0
sg12
g13
sg14
I1074
sg15
I0
sg16
I1073
sg17
I0
sg18
I0
sS'director_fees_ratio'
p125
F0.0
sg20
I0
sS'expenses_ratio'
p126
F0.0
sg22
I7256648
sg23
I44
sg24
F0.006382978723404255
sS'deferred_income_ratio'
p127
F0.0
sg26
I15
sS'deferral_payments_ratio'
p128
F1.0
sg28
I2046079
sS'other_ratio'
p129
F0.0
sg30
I0
sS'bonus_ratio'
p130
F0.0
sS'long_term_incentive_ratio'
p131
F0.0
sg33
I3131860
sS'salary_ratio'
p132
F0.0
sg35
I5210569
sg36
F0.04100652376514446
ssS'PIPER GREGORY F'
p133
(dp134
g3
I1238
sg4
I1130036
sS'loan_advances_ratio'
p135
F0.0
sg6
I43057
sg7
I00
sg8
I-33333
sg9
S'greg.piper@enron.com'
p136
sg11
I0
sg12
I-409554
sg14
I742
sg15
I0
sg16
I222
sg17
I778
sg18
I0
sS'director_fees_ratio'
p137
F0.0
sg20
I400000
sS'expenses_ratio'
p138
F0.024779167474760146
sg22
I880290
sg23
I61
sg24
F0.03877221324717286
sS'deferred_income_ratio'
p139
F-0.019183036194722808
sg26
I48
sS'deferral_payments_ratio'
p140
F0.6503321480016735
sg28
I409554
sS'other_ratio'
p141
F0.00044773654215025184
sg30
I197091
sS'bonus_ratio'
p142
F0.23019873632403695
sS'long_term_incentive_ratio'
p143
F0.0
sg33
I1737629
sS'salary_ratio'
p144
F0.11342524785210191
sg35
I880290
sg36
F0.2747747747747748
ssS'HUMPHREY GENE E'
p145
(dp146
g3
I128
sg4
I2964506
sS'loan_advances_ratio'
p147
F0.0
sg6
I4994
sg7
I00
sg8
I0
sg9
S'gene.humphrey@enron.com'
p148
sg11
I0
sg12
g13
sg14
I119
sg15
I0
sg16
I17
sg17
I0
sg18
I0
sS'director_fees_ratio'
p149
F0.0
sg20
I0
sS'expenses_ratio'
p150
F0.0016108513449350757
sg22
I2282768
sg23
I10
sg24
F0.1328125
sS'deferred_income_ratio'
p151
F0.0
sg26
I17
sS'deferral_payments_ratio'
p152
F0.9562231632294956
sg28
g13
sS'other_ratio'
p153
F0.0
sg30
I130724
sS'bonus_ratio'
p154
F0.0
sS'long_term_incentive_ratio'
p155
F0.0
sg33
I3100224
sS'salary_ratio'
p156
F0.04216598542556925
sg35
I2282768
sg36
F0.5882352941176471
ssS'UMANOFF ADAM S'
p157
(dp158
g3
I111
sg4
I0
sS'loan_advances_ratio'
p159
F0.0
sg6
I53122
sg7
I00
sg8
I0
sg9
S'adam.umanoff@enron.com'
p160
sg11
I0
sg12
g13
sg14
I41
sg15
I0
sg16
I18
sg17
I0
sg18
I0
sS'director_fees_ratio'
p161
F0.0
sg20
I788750
sS'expenses_ratio'
p162
F0.04699144862140313
sg22
g13
sg23
I12
sg24
F0.0
sS'deferred_income_ratio'
p163
F0.0
sg26
I0
sS'deferral_payments_ratio'
p164
F0.0
sg28
g13
sS'other_ratio'
p165
F0.0
sg30
I288589
sS'bonus_ratio'
p166
F0.6977242027809893
sS'long_term_incentive_ratio'
p167
F0.0
sg33
I1130461
sS'salary_ratio'
p168
F0.2552843485976075
sg35
g13
sg36
F0.6666666666666666
ssS'BLACHMAN JEREMY M'
p169
(dp170
g3
I2475
sg4
I0
sS'loan_advances_ratio'
p171
F0.0
sg6
I84208
sg7
I00
sg8
I0
sg9
S'jeremy.blachman@enron.com'
p172
sg11
I831809
sg12
g13
sg14
I2326
sg15
I0
sg16
I14
sg17
I272
sg18
I0
sS'director_fees_ratio'
p173
F0.0
sg20
I850000
sS'expenses_ratio'
p174
F0.04179399305650339
sg22
I954354
sg23
I25
sg24
F0.0008080808080808081
sS'deferred_income_ratio'
p175
F0.0
sg26
I2
sS'deferral_payments_ratio'
p176
F0.0
sg28
I189041
sS'other_ratio'
p177
F0.0001349986475319319
sg30
I248546
sS'bonus_ratio'
p178
F0.4218707735372872
sS'long_term_incentive_ratio'
p179
F0.4128422426650321
sg33
I2014835
sS'salary_ratio'
p180
F0.12335799209364538
sg35
I765313
sg36
F1.7857142857142858
ssS'SUNDE MARTIN'
p181
(dp182
g3
I2647
sg4
I0
sS'loan_advances_ratio'
p183
F0.0
sg6
I0
sg7
I00
sg8
I0
sg9
S'marty.sunde@enron.com'
p184
sg11
I476451
sg12
g13
sg14
I2565
sg15
I0
sg16
I38
sg17
I111122
sg18
I0
sS'director_fees_ratio'
p185
F0.0
sg20
I700000
sS'expenses_ratio'
p186
F0.0
sg22
I698920
sg23
I37
sg24
F0.004911220249338874
sS'deferred_income_ratio'
p187
F0.0
sg26
I13
sS'deferral_payments_ratio'
p188
F0.0
sg28
I698920
sS'other_ratio'
p189
F0.07192087810238962
sg30
I257486
sS'bonus_ratio'
p190
F0.4530571324460749
sS'long_term_incentive_ratio'
p191
F0.30837074830152117
sg33
I1545059
sS'salary_ratio'
p192
F0.16665124115001434
sg35
g13
sg36
F0.9736842105263158
ssS'GIBBS DANA R'
p193
(dp194
g3
I169
sg4
I504610
sS'loan_advances_ratio'
p195
F0.0
sg6
I0
sg7
I00
sg8
I0
sg9
S'dana.gibbs@enron.com'
p196
sg11
I461912
sg12
g13
sg14
I23
sg15
I0
sg16
I12
sg17
I0
sg18
I0
sS'director_fees_ratio'
p197
F0.0
sg20
I0
sS'expenses_ratio'
p198
F0.0
sg22
I2218275
sg23
I0
sg24
F0.0
sS'deferred_income_ratio'
p199
F0.0
sg26
I0
sS'deferral_payments_ratio'
p200
F0.5220884780687869
sg28
g13
sS'other_ratio'
p201
F0.0
sg30
I0
sS'bonus_ratio'
p202
F0.0
sS'long_term_incentive_ratio'
p203
F0.47791152193121317
sg33
I966522
sS'salary_ratio'
p204
F0.0
sg35
I2218275
sg36
F0.0
ssS'LOWRY CHARLES P'
p205
(dp206
g3
g13
sg4
g13
sS'loan_advances_ratio'
p207
g42
sg6
g13
sg7
I00
sg8
g13
sg9
g13
sg11
g13
sg12
I-153686
sg14
g13
sg15
g13
sg16
g13
sg17
g13
sg18
g13
sS'director_fees_ratio'
p208
g42
sg20
g13
sS'expenses_ratio'
p209
g42
sg22
I372205
sg23
g13
sg24
g42
sS'deferred_income_ratio'
p210
g42
sg26
g13
sS'deferral_payments_ratio'
p211
g42
sg28
I153686
sS'other_ratio'
p212
g42
sg30
g13
sS'bonus_ratio'
p213
g42
sS'long_term_incentive_ratio'
p214
g42
sg33
g13
sS'salary_ratio'
p215
g42
sg35
I372205
sg36
g42
ssS'COLWELL WESLEY'
p216
(dp217
g3
I1758
sg4
I27610
sS'loan_advances_ratio'
p218
F0.0
sg6
I16514
sg7
I01
sg8
I-144062
sg9
S'wes.colwell@enron.com'
p219
sg11
I0
sg12
g13
sg14
I1132
sg15
I0
sg16
I40
sg17
I101740
sg18
I0
sS'director_fees_ratio'
p220
F0.0
sg20
I1200000
sS'expenses_ratio'
p221
F0.011080663256268351
sg22
I698242
sg23
I240
sg24
F0.006257110352673493
sS'deferred_income_ratio'
p222
F-0.09666358907742105
sg26
I11
sS'deferral_payments_ratio'
p223
F0.01852592421615412
sg28
I698242
sS'other_ratio'
p224
F0.06826611842634989
sg30
I288542
sS'bonus_ratio'
p225
F0.8051832328643588
sS'long_term_incentive_ratio'
p226
F0.0
sg33
I1490344
sS'salary_ratio'
p227
F0.19360765031428986
sg35
g13
sg36
F6.0
ssS'MULLER MARK S'
p228
(dp229
g3
I136
sg4
I842924
sS'loan_advances_ratio'
p230
F0.0
sg6
I0
sg7
I00
sg8
I-719000
sg9
S's..muller@enron.com'
p231
sg11
I1725545
sg12
g13
sg14
I114
sg15
I0
sg16
I16
sg17
I947
sg18
I0
sS'director_fees_ratio'
p232
F0.0
sg20
I1100000
sS'expenses_ratio'
p233
F0.0
sg22
I1416848
sg23
I12
sg24
F0.0
sS'deferred_income_ratio'
p234
F-0.22454224923252772
sg26
I0
sS'deferral_payments_ratio'
p235
F0.2632434643839766
sg28
I360528
sS'other_ratio'
p236
F0.0002957461891838717
sg30
I251654
sS'bonus_ratio'
p237
F0.3435277804670104
sS'long_term_incentive_ratio'
p238
F0.5388842217690432
sg33
I3202070
sS'salary_ratio'
p239
F0.07859103642331366
sg35
I1056320
sg36
F0.75
ssS'JACKSON CHARLENE R'
p240
(dp241
g3
I258
sg4
I0
sS'loan_advances_ratio'
p242
F0.0
sg6
I10181
sg7
I00
sg8
I0
sg9
S'charlene.jackson@enron.com'
p243
sg11
I0
sg12
g13
sg14
I117
sg15
I0
sg16
I56
sg17
I2435
sg18
I0
sS'director_fees_ratio'
p244
F0.0
sg20
I250000
sS'expenses_ratio'
p245
F0.01847148087536785
sg22
I725735
sg23
I25
sg24
F0.07364341085271318
sS'deferred_income_ratio'
p246
F0.0
sg26
I19
sS'deferral_payments_ratio'
p247
F0.0
sg28
I540672
sS'other_ratio'
p248
F0.00441784264134375
sg30
I288558
sS'bonus_ratio'
p249
F0.453577273238578
sS'long_term_incentive_ratio'
p250
F0.0
sg33
I551174
sS'salary_ratio'
p251
F0.5235334032447104
sg35
I185063
sg36
F0.44642857142857145
ssS'WESTFAHL RICHARD K'
p252
(dp253
g3
g13
sg4
I0
sS'loan_advances_ratio'
p254
F0.0
sg6
I51870
sg7
I00
sg8
I-10800
sg9
S'dick.westfahl@enron.com'
p255
sg11
I256191
sg12
g13
sg14
g13
sg15
I0
sg16
g13
sg17
I401130
sg18
I0
sS'director_fees_ratio'
p256
F0.0
sg20
I0
sS'expenses_ratio'
p257
F0.06805880847881281
sg22
I384930
sg23
g13
sg24
g42
sS'deferred_income_ratio'
p258
F-0.014170717786218976
sg26
g13
sS'deferral_payments_ratio'
p259
F0.0
sg28
I384930
sS'other_ratio'
p260
F0.5263240764431498
sg30
I63744
sS'bonus_ratio'
p261
F0.0
sS'long_term_incentive_ratio'
p262
F0.336149107441595
sg33
I762135
sS'salary_ratio'
p263
F0.08363872542266133
sg35
g13
sg36
g42
ssS'WALTERS GARETH W'
p264
(dp265
g3
g13
sg4
I53625
sS'loan_advances_ratio'
p266
F0.0
sg6
I33785
sg7
I00
sg8
I0
sg9
g13
sg11
I0
sg12
g13
sg14
g13
sg15
I0
sg16
g13
sg17
I0
sg18
I0
sS'director_fees_ratio'
p267
F0.0
sg20
I0
sS'expenses_ratio'
p268
F0.3865118407504862
sg22
I1030329
sg23
g13
sg24
g42
sS'deferred_income_ratio'
p269
F0.0
sg26
g13
sS'deferral_payments_ratio'
p270
F0.6134881592495138
sg28
g13
sS'other_ratio'
p271
F0.0
sg30
I0
sS'bonus_ratio'
p272
F0.0
sS'long_term_incentive_ratio'
p273
F0.0
sg33
I87410
sS'salary_ratio'
p274
F0.0
sg35
I1030329
sg36
g42
ssS'WALLS JR ROBERT H'
p275
(dp276
g3
I671
sg4
I0
sS'loan_advances_ratio'
p277
F0.0
sg6
I50936
sg7
I00
sg8
I0
sg9
S'rob.walls@enron.com'
p278
sg11
I540751
sg12
g13
sg14
I215
sg15
I0
sg16
I146
sg17
I2
sg18
I0
sS'director_fees_ratio'
p279
F0.0
sg20
I850000
sS'expenses_ratio'
p280
F0.028316970391042817
sg22
I5898997
sg23
I17
sg24
F0.0
sS'deferred_income_ratio'
p281
F0.0
sg26
I0
sS'deferral_payments_ratio'
p282
F0.0
sg28
I1552453
sS'other_ratio'
p283
F1.1118647083022938e-06
sg30
I357091
sS'bonus_ratio'
p284
F0.47254250102847484
sS'long_term_incentive_ratio'
p285
F0.30062097643958685
sg33
I1798780
sS'salary_ratio'
p286
F0.1985184402761872
sg35
I4346544
sg36
F0.11643835616438356
ssS'KITCHEN LOUISE'
p287
(dp288
g3
I8305
sg4
I0
sS'loan_advances_ratio'
p289
F0.0
sg6
I5774
sg7
I00
sg8
I0
sg9
S'louise.kitchen@enron.com'
p290
sg11
I0
sg12
g13
sg14
I3669
sg15
I0
sg16
I1728
sg17
I93925
sg18
I0
sS'director_fees_ratio'
p291
F0.0
sg20
I3100000
sS'expenses_ratio'
p292
F0.0016634299787879547
sg22
I547143
sg23
I251
sg24
F0.023359422034918725
sS'deferred_income_ratio'
p293
F0.0
sg26
I194
sS'deferral_payments_ratio'
p294
F0.0
sg28
I466101
sS'other_ratio'
p295
F0.02705882590191525
sg30
I271442
sS'bonus_ratio'
p296
F0.8930780973748977
sS'long_term_incentive_ratio'
p297
F0.0
sg33
I3471141
sS'salary_ratio'
p298
F0.07819964674439903
sg35
I81042
sg36
F0.14525462962962962
ssS'CHAN RONNIE'
p299
(dp300
g3
g13
sg4
g13
sS'loan_advances_ratio'
p301
g42
sg6
g13
sg7
I00
sg8
I-98784
sg9
g13
sg11
g13
sg12
I-32460
sg14
g13
sg15
g13
sg16
g13
sg17
g13
sg18
I98784
sS'director_fees_ratio'
p302
g42
sg20
g13
sS'expenses_ratio'
p303
g42
sg22
g13
sg23
g13
sg24
g42
sS'deferred_income_ratio'
p304
g42
sg26
g13
sS'deferral_payments_ratio'
p305
g42
sg28
I32460
sS'other_ratio'
p306
g42
sg30
g13
sS'bonus_ratio'
p307
g42
sS'long_term_incentive_ratio'
p308
g42
sg33
g13
sS'salary_ratio'
p309
g42
sg35
g13
sg36
g42
ssS'BELFER ROBERT'
p310
(dp311
g3
g13
sg4
I-102500
sS'loan_advances_ratio'
p312
F0.0
sg6
I0
sg7
I00
sg8
I0
sg9
g13
sg11
I0
sg12
I-44093
sg14
g13
sg15
I0
sg16
g13
sg17
I0
sg18
I3285
sS'director_fees_ratio'
p313
F0.03204878048780488
sg20
I0
sS'expenses_ratio'
p314
F0.0
sg22
I-44093
sg23
g13
sg24
g42
sS'deferred_income_ratio'
p315
F0.0
sg26
g13
sS'deferral_payments_ratio'
p316
F-1.0
sg28
g13
sS'other_ratio'
p317
F0.0
sg30
I0
sS'bonus_ratio'
p318
F0.0
sS'long_term_incentive_ratio'
p319
F0.0
sg33
I102500
sS'salary_ratio'
p320
F0.0
sg35
I3285
sg36
g42
ssS'SHANKMAN JEFFREY A'
p321
(dp322
g3
I3221
sg4
I0
sS'loan_advances_ratio'
p323
F0.0
sg6
I178979
sg7
I00
sg8
I0
sg9
S'jeffrey.shankman@enron.com'
p324
sg11
I554422
sg12
g13
sg14
I1730
sg15
I0
sg16
I2681
sg17
I1191
sg18
I0
sS'director_fees_ratio'
p325
F0.0
sg20
I2000000
sS'expenses_ratio'
p326
F0.05889981972565918
sg22
I2072035
sg23
I94
sg24
F0.025768394908413535
sS'deferred_income_ratio'
p327
F0.0
sg26
I83
sS'deferral_payments_ratio'
p328
F0.0
sg28
I630137
sS'other_ratio'
p329
F0.0003919436654203012
sg30
I304110
sS'bonus_ratio'
p330
F0.6581757605714545
sS'long_term_incentive_ratio'
p331
F0.18245356076377348
sg33
I3038702
sS'salary_ratio'
p332
F0.10007891527369252
sg35
I1441898
sg36
F0.0350615441999254
ssS'WODRASKA JOHN'
p333
(dp334
g3
g13
sg4
I0
sS'loan_advances_ratio'
p335
F0.0
sg6
I0
sg7
I00
sg8
I0
sg9
S'john.wodraska@enron.com'
p336
sg11
I0
sg12
g13
sg14
g13
sg15
I0
sg16
g13
sg17
I189583
sg18
I0
sS'director_fees_ratio'
p337
F0.0
sg20
I0
sS'expenses_ratio'
p338
F0.0
sg22
g13
sg23
g13
sg24
g42
sS'deferred_income_ratio'
p339
F0.0
sg26
g13
sS'deferral_payments_ratio'
p340
F0.0
sg28
g13
sS'other_ratio'
p341
F1.0
sg30
I0
sS'bonus_ratio'
p342
F0.0
sS'long_term_incentive_ratio'
p343
F0.0
sg33
I189583
sS'salary_ratio'
p344
F0.0
sg35
g13
sg36
g42
ssS'BERGSIEKER RICHARD P'
p345
(dp346
g3
I383
sg4
I0
sS'loan_advances_ratio'
p347
F0.0
sg6
I59175
sg7
I00
sg8
I-485813
sg9
S'rick.bergsieker@enron.com'
p348
sg11
I180250
sg12
g13
sg14
I233
sg15
I0
sg16
I59
sg17
I427316
sg18
I0
sS'director_fees_ratio'
p349
F0.0
sg20
I250000
sS'expenses_ratio'
p350
F0.09562090975195928
sg22
I659249
sg23
I4
sg24
F0.0
sS'deferred_income_ratio'
p351
F-0.7850254504322534
sg26
I0
sS'deferral_payments_ratio'
p352
F0.0
sg28
I659249
sS'other_ratio'
p353
F0.6905001211925346
sg30
I187922
sS'bonus_ratio'
p354
F0.4039751151329078
sS'long_term_incentive_ratio'
p355
F0.29126605801082656
sg33
I618850
sS'salary_ratio'
p356
F0.3036632463440252
sg35
g13
sg36
F0.06779661016949153
ssS'URQUHART JOHN A'
p357
(dp358
g3
g13
sg4
I0
sS'loan_advances_ratio'
p359
F0.0
sg6
I228656
sg7
I00
sg8
I-36666
sg9
g13
sg11
I0
sg12
g13
sg14
g13
sg15
I0
sg16
g13
sg17
I0
sg18
I36666
sS'director_fees_ratio'
p360
F0.16035441886501994
sg20
I0
sS'expenses_ratio'
p361
F1.0
sg22
g13
sg23
g13
sg24
g42
sS'deferred_income_ratio'
p362
F-0.16035441886501994
sg26
g13
sS'deferral_payments_ratio'
p363
F0.0
sg28
g13
sS'other_ratio'
p364
F0.0
sg30
I0
sS'bonus_ratio'
p365
F0.0
sS'long_term_incentive_ratio'
p366
F0.0
sg33
I228656
sS'salary_ratio'
p367
F0.0
sg35
g13
sg36
g42
ssS'BIBI PHILIPPE A'
p368
(dp369
g3
I1607
sg4
I0
sS'loan_advances_ratio'
p370
F0.0
sg6
I38559
sg7
I00
sg8
I0
sg9
S'philippe.bibi@enron.com'
p371
sg11
I369721
sg12
g13
sg14
I1336
sg15
I0
sg16
I40
sg17
I425688
sg18
I0
sS'director_fees_ratio'
p372
F0.0
sg20
I1000000
sS'expenses_ratio'
p373
F0.018831379087543277
sg22
I1843816
sg23
I23
sg24
F0.004978220286247666
sS'deferred_income_ratio'
p374
F0.0
sg26
I8
sS'deferral_payments_ratio'
p375
F0.0
sg28
I378082
sS'other_ratio'
p376
F0.2078967841753708
sg30
I213625
sS'bonus_ratio'
p377
F0.4883783056496091
sS'long_term_incentive_ratio'
p378
F0.18056371554307912
sg33
I2047593
sS'salary_ratio'
p379
F0.10432981554439774
sg35
I1465734
sg36
F0.575
ssS'RIEKER PAULA H'
p380
(dp381
g3
I1328
sg4
I214678
sS'loan_advances_ratio'
p382
F0.0
sg6
I33271
sg7
I01
sg8
I-100000
sg9
S'paula.rieker@enron.com'
p383
sg11
I0
sg12
g13
sg14
I1258
sg15
I0
sg16
I82
sg17
I1950
sg18
I0
sS'director_fees_ratio'
p384
F0.0
sg20
I700000
sS'expenses_ratio'
p385
F0.03027113092530252
sg22
I1918887
sg23
I35
sg24
F0.03614457831325301
sS'deferred_income_ratio'
p386
F-0.09098353198071149
sg26
I48
sS'deferral_payments_ratio'
p387
F0.19532162678555182
sg28
I283649
sS'other_ratio'
p388
F0.0017741788736238742
sg30
I249201
sS'bonus_ratio'
p389
F0.6368847238649804
sS'long_term_incentive_ratio'
p390
F0.0
sg33
I1099100
sS'salary_ratio'
p391
F0.22673187153125285
sg35
I1635238
sg36
F0.4268292682926829
ssS'WHALEY DAVID A'
p392
(dp393
g3
g13
sg4
g13
sS'loan_advances_ratio'
p394
g42
sg6
g13
sg7
I00
sg8
g13
sg9
g13
sg11
g13
sg12
g13
sg14
g13
sg15
g13
sg16
g13
sg17
g13
sg18
g13
sS'director_fees_ratio'
p395
g42
sg20
g13
sS'expenses_ratio'
p396
g42
sg22
I98718
sg23
g13
sg24
g42
sS'deferred_income_ratio'
p397
g42
sg26
g13
sS'deferral_payments_ratio'
p398
g42
sg28
g13
sS'other_ratio'
p399
g42
sg30
g13
sS'bonus_ratio'
p400
g42
sS'long_term_incentive_ratio'
p401
g42
sg33
g13
sS'salary_ratio'
p402
g42
sg35
I98718
sg36
g42
ssS'BECK SALLY W'
p403
(dp404
g3
I7315
sg4
I0
sS'loan_advances_ratio'
p405
F0.0
sg6
I37172
sg7
I00
sg8
I0
sg9
S'sally.beck@enron.com'
p406
sg11
I0
sg12
g13
sg14
I2639
sg15
I0
sg16
I4343
sg17
I566
sg18
I0
sS'director_fees_ratio'
p407
F0.0
sg20
I700000
sS'expenses_ratio'
p408
F0.0383585052854908
sg22
I126027
sg23
I144
sg24
F0.052768284347231714
sS'deferred_income_ratio'
p409
F0.0
sg26
I386
sS'deferral_payments_ratio'
p410
F0.0
sg28
I126027
sS'other_ratio'
p411
F0.0005840663400298018
sg30
I231330
sS'bonus_ratio'
p412
F0.7223435300721931
sS'long_term_incentive_ratio'
p413
F0.0
sg33
I969068
sS'salary_ratio'
p414
F0.23871389830228631
sg35
g13
sg36
F0.033156804052498275
ssS'HAUG DAVID L'
p415
(dp416
g3
I573
sg4
I0
sS'loan_advances_ratio'
p417
F0.0
sg6
I475
sg7
I00
sg8
I0
sg9
S'david.haug@enron.com'
p418
sg11
I0
sg12
g13
sg14
I471
sg15
I0
sg16
I19
sg17
I0
sg18
I0
sS'director_fees_ratio'
p419
F0.0
sg20
I0
sS'expenses_ratio'
p420
F1.0
sg22
I2217299
sg23
I4
sg24
F0.012216404886561954
sS'deferred_income_ratio'
p421
F0.0
sg26
I7
sS'deferral_payments_ratio'
p422
F0.0
sg28
I2217299
sS'other_ratio'
p423
F0.0
sg30
I0
sS'bonus_ratio'
p424
F0.0
sS'long_term_incentive_ratio'
p425
F0.0
sg33
I475
sS'salary_ratio'
p426
F0.0
sg35
g13
sg36
F0.21052631578947367
ssS'ECHOLS JOHN B'
p427
(dp428
g3
g13
sg4
I0
sS'loan_advances_ratio'
p429
F0.0
sg6
I21530
sg7
I00
sg8
I0
sg9
S'john.echols@enron.com'
p430
sg11
I2234774
sg12
g13
sg14
g13
sg15
I0
sg16
g13
sg17
I53775
sg18
I0
sS'director_fees_ratio'
p431
F0.0
sg20
I200000
sS'expenses_ratio'
p432
F0.007996808705044415
sg22
I1008941
sg23
g13
sg24
g42
sS'deferred_income_ratio'
p433
F0.0
sg26
g13
sS'deferral_payments_ratio'
p434
F0.0
sg28
I407503
sS'other_ratio'
p435
F0.019973450446528724
sg30
I182245
sS'bonus_ratio'
p436
F0.07428526432925606
sS'long_term_incentive_ratio'
p437
F0.8300538865307444
sg33
I2692324
sS'salary_ratio'
p438
F0.06769058998842635
sg35
I601438
sg36
g42
ssS'MENDELSOHN JOHN'
p439
(dp440
g3
g13
sg4
I0
sS'loan_advances_ratio'
p441
F0.0
sg6
I148
sg7
I00
sg8
I-103750
sg9
g13
sg11
I0
sg12
g13
sg14
g13
sg15
I0
sg16
g13
sg17
I0
sg18
I103750
sS'director_fees_ratio'
p442
F701.0135135135135
sg20
I0
sS'expenses_ratio'
p443
F1.0
sg22
g13
sg23
g13
sg24
g42
sS'deferred_income_ratio'
p444
F-701.0135135135135
sg26
g13
sS'deferral_payments_ratio'
p445
F0.0
sg28
g13
sS'other_ratio'
p446
F0.0
sg30
I0
sS'bonus_ratio'
p447
F0.0
sS'long_term_incentive_ratio'
p448
F0.0
sg33
I148
sS'salary_ratio'
p449
F0.0
sg35
g13
sg36
g42
ssS'HICKERSON GARY J'
p450
(dp451
g3
I1320
sg4
I0
sS'loan_advances_ratio'
p452
F0.0
sg6
I98849
sg7
I00
sg8
I0
sg9
S'gary.hickerson@enron.com'
p453
sg11
I69223
sg12
g13
sg14
I900
sg15
I0
sg16
I27
sg17
I1936
sg18
I0
sS'director_fees_ratio'
p454
F0.0
sg20
I1700000
sS'expenses_ratio'
p455
F0.04748255832944246
sg22
I441096
sg23
I40
sg24
F0.0007575757575757576
sS'deferred_income_ratio'
p456
F0.0
sg26
I1
sS'deferral_payments_ratio'
p457
F0.0
sg28
I441096
sS'other_ratio'
p458
F0.0009299662406883287
sg30
I211788
sS'bonus_ratio'
p459
F0.8166025873812804
sS'long_term_incentive_ratio'
p460
F0.03325157700370257
sg33
I2081796
sS'salary_ratio'
p461
F0.10173331104488624
sg35
g13
sg36
F1.4814814814814814
ssS'CLINE KENNETH W'
p462
(dp463
g3
g13
sg4
g13
sS'loan_advances_ratio'
p464
g42
sg6
g13
sg7
I00
sg8
g13
sg9
g13
sg11
g13
sg12
I-472568
sg14
g13
sg15
g13
sg16
g13
sg17
g13
sg18
g13
sS'director_fees_ratio'
p465
g42
sg20
g13
sS'expenses_ratio'
p466
g42
sg22
I189518
sg23
g13
sg24
g42
sS'deferred_income_ratio'
p467
g42
sg26
g13
sS'deferral_payments_ratio'
p468
g42
sg28
I662086
sS'other_ratio'
p469
g42
sg30
g13
sS'bonus_ratio'
p470
g42
sS'long_term_incentive_ratio'
p471
g42
sg33
g13
sS'salary_ratio'
p472
g42
sg35
g13
sg36
g42
ssS'LEWIS RICHARD'
p473
(dp474
g3
I952
sg4
g13
sS'loan_advances_ratio'
p475
g42
sg6
g13
sg7
I00
sg8
g13
sg9
S'richard.lewis@enron.com'
p476
sg11
g13
sg12
g13
sg14
I739
sg15
g13
sg16
I26
sg17
g13
sg18
g13
sS'director_fees_ratio'
p477
g42
sg20
g13
sS'expenses_ratio'
p478
g42
sg22
I850477
sg23
I10
sg24
F0.0
sS'deferred_income_ratio'
p479
g42
sg26
I0
sS'deferral_payments_ratio'
p480
g42
sg28
g13
sS'other_ratio'
p481
g42
sg30
g13
sS'bonus_ratio'
p482
g42
sS'long_term_incentive_ratio'
p483
g42
sg33
g13
sS'salary_ratio'
p484
g42
sg35
I850477
sg36
F0.38461538461538464
ssS'HAYES ROBERT E'
p485
(dp486
g3
I504
sg4
I7961
sS'loan_advances_ratio'
p487
F0.0
sg6
I0
sg7
I00
sg8
I0
sg9
S'robert.hayes@enron.com'
p488
sg11
I0
sg12
g13
sg14
I50
sg15
I0
sg16
I12
sg17
I0
sg18
I0
sS'director_fees_ratio'
p489
F0.0
sg20
I0
sS'expenses_ratio'
p490
F0.0
sg22
I151418
sg23
I16
sg24
F0.0
sS'deferred_income_ratio'
p491
F0.0
sg26
I0
sS'deferral_payments_ratio'
p492
F1.0
sg28
I151418
sS'other_ratio'
p493
F0.0
sg30
I0
sS'bonus_ratio'
p494
F0.0
sS'long_term_incentive_ratio'
p495
F0.0
sg33
I7961
sS'salary_ratio'
p496
F0.0
sg35
g13
sg36
F1.3333333333333333
ssS'MCCARTY DANNY J'
p497
(dp498
g3
I1433
sg4
g13
sS'loan_advances_ratio'
p499
g42
sg6
g13
sg7
I00
sg8
g13
sg9
S'danny.mccarty@enron.com'
p500
sg11
g13
sg12
g13
sg14
I508
sg15
g13
sg16
I215
sg17
g13
sg18
g13
sS'director_fees_ratio'
p501
g42
sg20
g13
sS'expenses_ratio'
p502
g42
sg22
I758931
sg23
I25
sg24
F0.0013956734124214933
sS'deferred_income_ratio'
p503
g42
sg26
I2
sS'deferral_payments_ratio'
p504
g42
sg28
I94556
sS'other_ratio'
p505
g42
sg30
g13
sS'bonus_ratio'
p506
g42
sS'long_term_incentive_ratio'
p507
g42
sg33
g13
sS'salary_ratio'
p508
g42
sg35
I664375
sg36
F0.11627906976744186
ssS'KOPPER MICHAEL J'
p509
(dp510
g3
g13
sg4
I0
sS'loan_advances_ratio'
p511
F0.0
sg6
I118134
sg7
I01
sg8
I0
sg9
S'michael.kopper@enron.com'
p512
sg11
I602671
sg12
g13
sg14
g13
sg15
I0
sg16
g13
sg17
I907502
sg18
I0
sS'director_fees_ratio'
p513
F0.0
sg20
I800000
sS'expenses_ratio'
p514
F0.04453497156764728
sg22
I985032
sg23
g13
sg24
g42
sS'deferred_income_ratio'
p515
F0.0
sg26
g13
sS'deferral_payments_ratio'
p516
F0.0
sg28
I985032
sS'other_ratio'
p517
F0.34211637435101705
sg30
I224305
sS'bonus_ratio'
p518
F0.30158952760524343
sS'long_term_incentive_ratio'
p519
F0.22719907773922457
sg33
I2652612
sS'salary_ratio'
p520
F0.08456004873686766
sg35
g13
sg36
g42
ssS'LEFF DANIEL P'
p521
(dp522
g3
I2822
sg4
I0
sS'loan_advances_ratio'
p523
F0.0
sg6
I0
sg7
I00
sg8
I0
sg9
S'dan.leff@enron.com'
p524
sg11
I1387399
sg12
g13
sg14
I2672
sg15
I0
sg16
I63
sg17
I3083
sg18
I0
sS'director_fees_ratio'
p525
F0.0
sg20
I1000000
sS'expenses_ratio'
p526
F0.0
sg22
I360528
sg23
I67
sg24
F0.004961020552799433
sS'deferred_income_ratio'
p527
F0.0
sg26
I14
sS'deferral_payments_ratio'
p528
F0.0
sg28
I360528
sS'other_ratio'
p529
F0.001157183244076708
sg30
I273746
sS'bonus_ratio'
p530
F0.3753432514034084
sS'long_term_incentive_ratio'
p531
F0.5207508516538374
sg33
I2664228
sS'salary_ratio'
p532
F0.10274871369867744
sg35
g13
sg36
F1.0634920634920635
ssS'LAVORATO JOHN J'
p533
(dp534
g3
I7259
sg4
I0
sS'loan_advances_ratio'
p535
F0.0
sg6
I49537
sg7
I00
sg8
I0
sg9
S'john.lavorato@enron.com'
p536
sg11
I2035380
sg12
g13
sg14
I3962
sg15
I0
sg16
I2585
sg17
I1552
sg18
I0
sS'director_fees_ratio'
p537
F0.0
sg20
I8000000
sS'expenses_ratio'
p538
F0.004751405581388478
sg22
I5167144
sg23
I528
sg24
F0.05661936905909905
sS'deferred_income_ratio'
p539
F0.0
sg26
I411
sS'deferral_payments_ratio'
p540
F0.0
sg28
I1008149
sS'other_ratio'
p541
F0.00014886209222025797
sg30
I339288
sS'bonus_ratio'
p542
F0.767330372269371
sS'long_term_incentive_ratio'
p543
F0.19522611163870404
sg33
I10425757
sS'salary_ratio'
p544
F0.03254324841831629
sg35
I4158995
sg36
F0.20425531914893616
ssS'BERBERIAN DAVID'
p545
(dp546
g3
g13
sg4
I0
sS'loan_advances_ratio'
p547
F0.0
sg6
I11892
sg7
I00
sg8
I0
sg9
S'david.berberian@enron.com'
p548
sg11
I0
sg12
g13
sg14
g13
sg15
I0
sg16
g13
sg17
I0
sg18
I0
sS'director_fees_ratio'
p549
F0.0
sg20
I0
sS'expenses_ratio'
p550
F0.052049686178733685
sg22
I2493616
sg23
g13
sg24
g42
sS'deferred_income_ratio'
p551
F0.0
sg26
g13
sS'deferral_payments_ratio'
p552
F0.0
sg28
I869220
sS'other_ratio'
p553
F0.0
sg30
I216582
sS'bonus_ratio'
p554
F0.0
sS'long_term_incentive_ratio'
p555
F0.0
sg33
I228474
sS'salary_ratio'
p556
F0.9479503138212663
sg35
I1624396
sg36
g42
ssS'DETMERING TIMOTHY J'
p557
(dp558
g3
g13
sg4
I875307
sS'loan_advances_ratio'
p559
F0.0
sg6
I52255
sg7
I00
sg8
I-775241
sg9
S'timothy.detmering@enron.com'
p560
sg11
I415657
sg12
I-315068
sg14
g13
sg15
I0
sg16
g13
sg17
I1105
sg18
I0
sS'director_fees_ratio'
p561
F0.0
sg20
I425000
sS'expenses_ratio'
p562
F0.0433801572826447
sg22
I2027865
sg23
g13
sg24
g42
sS'deferred_income_ratio'
p563
F-0.643576241736767
sg26
g13
sS'deferral_payments_ratio'
p564
F0.7266473128045141
sg28
I315068
sS'other_ratio'
p565
F0.0009173298975662117
sg30
I210500
sS'bonus_ratio'
p566
F0.3528191913716199
sS'long_term_incentive_ratio'
p567
F0.34506298030106686
sg33
I1204583
sS'salary_ratio'
p568
F0.17474927007935526
sg35
I2027865
sg36
g42
ssS'WAKEHAM JOHN'
p569
(dp570
g3
g13
sg4
I0
sS'loan_advances_ratio'
p571
F0.0
sg6
I103773
sg7
I00
sg8
I0
sg9
g13
sg11
I0
sg12
g13
sg14
g13
sg15
I0
sg16
g13
sg17
I0
sg18
I109298
sS'director_fees_ratio'
p572
F0.5129651618474593
sg20
I0
sS'expenses_ratio'
p573
F0.4870348381525407
sg22
g13
sg23
g13
sg24
g42
sS'deferred_income_ratio'
p574
F0.0
sg26
g13
sS'deferral_payments_ratio'
p575
F0.0
sg28
g13
sS'other_ratio'
p576
F0.0
sg30
I0
sS'bonus_ratio'
p577
F0.0
sS'long_term_incentive_ratio'
p578
F0.0
sg33
I213071
sS'salary_ratio'
p579
F0.0
sg35
g13
sg36
g42
ssS'POWERS WILLIAM'
p580
(dp581
g3
I653
sg4
g13
sS'loan_advances_ratio'
p582
g42
sg6
g13
sg7
I00
sg8
I-17500
sg9
S'ken.powers@enron.com'
p583
sg11
g13
sg12
g13
sg14
I12
sg15
g13
sg16
I26
sg17
g13
sg18
I17500
sS'director_fees_ratio'
p584
g42
sg20
g13
sS'expenses_ratio'
p585
g42
sg22
g13
sg23
I0
sg24
F0.0
sS'deferred_income_ratio'
p586
g42
sg26
I0
sS'deferral_payments_ratio'
p587
g42
sg28
g13
sS'other_ratio'
p588
g42
sg30
g13
sS'bonus_ratio'
p589
g42
sS'long_term_incentive_ratio'
p590
g42
sg33
g13
sS'salary_ratio'
p591
g42
sg35
g13
sg36
F0.0
ssS'GOLD JOSEPH'
p592
(dp593
g3
g13
sg4
I0
sS'loan_advances_ratio'
p594
F0.0
sg6
I0
sg7
I00
sg8
I0
sg9
S'joe.gold@enron.com'
p595
sg11
I304805
sg12
g13
sg14
g13
sg15
I0
sg16
g13
sg17
I819288
sg18
I0
sS'director_fees_ratio'
p596
F0.0
sg20
I750000
sS'expenses_ratio'
p597
F0.0
sg22
I877611
sg23
g13
sg24
g42
sS'deferred_income_ratio'
p598
F0.0
sg26
g13
sS'deferral_payments_ratio'
p599
F0.0
sg28
I441096
sS'other_ratio'
p600
F0.38160144538380314
sg30
I272880
sS'bonus_ratio'
p601
F0.34932903208377564
sS'long_term_incentive_ratio'
p602
F0.1419696474990603
sg33
I2146973
sS'salary_ratio'
p603
F0.12709987503336093
sg35
I436515
sg36
g42
ssS'BANNANTINE JAMES M'
p604
(dp605
g3
I566
sg4
I0
sS'loan_advances_ratio'
p606
F0.0
sg6
I56301
sg7
I00
sg8
I-5104
sg9
S'james.bannantine@enron.com'
p607
sg11
I0
sg12
I-560222
sg14
I465
sg15
I0
sg16
I29
sg17
I864523
sg18
I0
sS'director_fees_ratio'
p608
F0.0
sg20
I0
sS'expenses_ratio'
p609
F0.0614507578610277
sg22
I5243487
sg23
I39
sg24
F0.0
sS'deferred_income_ratio'
p610
F-0.005570854303168424
sg26
I0
sS'deferral_payments_ratio'
p611
F0.0
sg28
I1757552
sS'other_ratio'
p612
F0.943599466053698
sg30
I477
sS'bonus_ratio'
p613
F0.0
sS'long_term_incentive_ratio'
p614
F0.0
sg33
I916197
sS'salary_ratio'
p615
F0.0005206303884426602
sg35
I4046157
sg36
F1.3448275862068966
ssS'DUNCAN JOHN H'
p616
(dp617
g3
g13
sg4
I0
sS'loan_advances_ratio'
p618
F0.0
sg6
I0
sg7
I00
sg8
I-25000
sg9
g13
sg11
I0
sg12
g13
sg14
g13
sg15
I0
sg16
g13
sg17
I0
sg18
I102492
sS'director_fees_ratio'
p619
F1.3226139472461673
sg20
I0
sS'expenses_ratio'
p620
F0.0
sg22
I371750
sg23
g13
sg24
g42
sS'deferred_income_ratio'
p621
F-0.3226139472461673
sg26
g13
sS'deferral_payments_ratio'
p622
F0.0
sg28
g13
sS'other_ratio'
p623
F0.0
sg30
I0
sS'bonus_ratio'
p624
F0.0
sS'long_term_incentive_ratio'
p625
F0.0
sg33
I77492
sS'salary_ratio'
p626
F0.0
sg35
I371750
sg36
g42
ssS'SHAPIRO RICHARD S'
p627
(dp628
g3
I15149
sg4
I0
sS'loan_advances_ratio'
p629
F0.0
sg6
I137767
sg7
I00
sg8
I0
sg9
S'richard.shapiro@enron.com'
p630
sg11
I0
sg12
g13
sg14
I4527
sg15
I0
sg16
I1215
sg17
I705
sg18
I0
sS'director_fees_ratio'
p631
F0.0
sg20
I650000
sS'expenses_ratio'
p632
F0.1302702099573731
sg22
I987001
sg23
I74
sg24
F0.004290712258234867
sS'deferred_income_ratio'
p633
F0.0
sg26
I65
sS'deferral_payments_ratio'
p634
F0.0
sg28
I379164
sS'other_ratio'
p635
F0.0006666364079928287
sg30
I269076
sS'bonus_ratio'
p636
F0.6146293123338137
sS'long_term_incentive_ratio'
p637
F0.0
sg33
I1057548
sS'salary_ratio'
p638
F0.25443384130082036
sg35
I607837
sg36
F0.060905349794238686
ssS'SHERRIFF JOHN R'
p639
(dp640
g3
I3187
sg4
I0
sS'loan_advances_ratio'
p641
F0.0
sg6
I0
sg7
I00
sg8
I0
sg9
S'john.sherriff@enron.com'
p642
sg11
I554422
sg12
g13
sg14
I2103
sg15
I0
sg16
I92
sg17
I1852186
sg18
I0
sS'director_fees_ratio'
p643
F0.0
sg20
I1500000
sS'expenses_ratio'
p644
F0.0
sg22
I3128982
sg23
I28
sg24
F0.0072168183244430495
sS'deferred_income_ratio'
p645
F0.0
sg26
I23
sS'deferral_payments_ratio'
p646
F0.0
sg28
I1293424
sS'other_ratio'
p647
F0.42722496809974103
sg30
I428780
sS'bonus_ratio'
p648
F0.34598979376240374
sS'long_term_incentive_ratio'
p649
F0.1278829022915596
sg33
I4335388
sS'salary_ratio'
p650
F0.09890233584629565
sg35
I1835558
sg36
F0.30434782608695654
ssS'SHELBY REX'
p651
(dp652
g3
I225
sg4
I0
sS'loan_advances_ratio'
p653
F0.0
sg6
I22884
sg7
I01
sg8
I-4167
sg9
S'rex.shelby@enron.com'
p654
sg11
I0
sg12
g13
sg14
I91
sg15
I0
sg16
I39
sg17
I1573324
sg18
I0
sS'director_fees_ratio'
p655
F0.0
sg20
I200000
sS'expenses_ratio'
p656
F0.011419817005466881
sg22
I2493616
sg23
I13
sg24
F0.06222222222222222
sS'deferred_income_ratio'
p657
F-0.0020794606476918585
sg26
I14
sS'deferral_payments_ratio'
p658
F0.0
sg28
I869220
sS'other_ratio'
p659
F0.7851368716268649
sg30
I211844
sS'bonus_ratio'
p660
F0.09980612659908128
sS'long_term_incentive_ratio'
p661
F0.0
sg33
I2003885
sS'salary_ratio'
p662
F0.10571664541627888
sg35
I1624396
sg36
F0.3333333333333333
ssS'LEMAISTRE CHARLES'
p663
(dp664
g3
g13
sg4
I0
sS'loan_advances_ratio'
p665
F0.0
sg6
I0
sg7
I00
sg8
I-25000
sg9
g13
sg11
I0
sg12
g13
sg14
g13
sg15
I0
sg16
g13
sg17
I0
sg18
I112492
sS'director_fees_ratio'
p666
F1.285740410551822
sg20
I0
sS'expenses_ratio'
p667
F0.0
sg22
I412878
sg23
g13
sg24
g42
sS'deferred_income_ratio'
p668
F-0.28574041055182187
sg26
g13
sS'deferral_payments_ratio'
p669
F0.0
sg28
g13
sS'other_ratio'
p670
F0.0
sg30
I0
sS'bonus_ratio'
p671
F0.0
sS'long_term_incentive_ratio'
p672
F0.0
sg33
I87492
sS'salary_ratio'
p673
F0.0
sg35
I412878
sg36
g42
ssS'DEFFNER JOSEPH M'
p674
(dp675
g3
I714
sg4
I0
sS'loan_advances_ratio'
p676
F0.0
sg6
I41626
sg7
I00
sg8
I0
sg9
S'joseph.deffner@enron.com'
p677
sg11
I335349
sg12
g13
sg14
I552
sg15
I0
sg16
I74
sg17
I25553
sg18
I0
sS'director_fees_ratio'
p678
F0.0
sg20
I600000
sS'expenses_ratio'
p679
F0.034440106267410966
sg22
I159211
sg23
I115
sg24
F0.0056022408963585435
sS'deferred_income_ratio'
p680
F0.0
sg26
I4
sS'deferral_payments_ratio'
p681
F0.0
sg28
I141833
sS'other_ratio'
p682
F0.021141787235169185
sg30
I206121
sS'bonus_ratio'
p683
F0.49642203815996205
sS'long_term_incentive_ratio'
p684
F0.2774577234581752
sg33
I1208649
sS'salary_ratio'
p685
F0.17053834487928257
sg35
I17378
sg36
F1.554054054054054
ssS'KISHKILL JOSEPH G'
p686
(dp687
g3
g13
sg4
I0
sS'loan_advances_ratio'
p688
F0.0
sg6
I116335
sg7
I00
sg8
I-51042
sg9
S'joe.kishkill@enron.com'
p689
sg11
I0
sg12
g13
sg14
g13
sg15
I0
sg16
g13
sg17
I465357
sg18
I0
sS'director_fees_ratio'
p690
F0.0
sg20
I0
sS'expenses_ratio'
p691
F0.16503853050662792
sg22
I1034346
sg23
g13
sg24
g42
sS'deferred_income_ratio'
p692
F-0.07241068185945161
sg26
g13
sS'deferral_payments_ratio'
p693
F0.0
sg28
I1034346
sS'other_ratio'
p694
F0.660178239059379
sg30
I174246
sS'bonus_ratio'
p695
F0.0
sS'long_term_incentive_ratio'
p696
F0.0
sg33
I704896
sS'salary_ratio'
p697
F0.2471939122934447
sg35
g13
sg36
g42
ssS'WHALLEY LAWRENCE G'
p698
(dp699
g3
I6019
sg4
I0
sS'loan_advances_ratio'
p700
F0.0
sg6
I57838
sg7
I00
sg8
I0
sg9
S'greg.whalley@enron.com'
p701
sg11
I808346
sg12
g13
sg14
I3920
sg15
I0
sg16
I556
sg17
I301026
sg18
I0
sS'director_fees_ratio'
p702
F0.0
sg20
I3000000
sS'expenses_ratio'
p703
F0.012364956706190004
sg22
I6079137
sg23
I186
sg24
F0.003987373317826882
sS'deferred_income_ratio'
p704
F0.0
sg26
I24
sS'deferral_payments_ratio'
p705
F0.0
sg28
I2796177
sS'other_ratio'
p706
F0.06435515504404633
sg30
I510364
sS'bonus_ratio'
p707
F0.6413581057189047
sS'long_term_incentive_ratio'
p708
F0.17281308644181792
sg33
I4677574
sS'salary_ratio'
p709
F0.10910869608904103
sg35
I3282960
sg36
F0.3345323741007194
ssS'MCCONNELL MICHAEL S'
p710
(dp711
g3
I3329
sg4
I0
sS'loan_advances_ratio'
p712
F0.0
sg6
I81364
sg7
I00
sg8
I0
sg9
S'mike.mcconnell@enron.com'
p713
sg11
I554422
sg12
g13
sg14
I2189
sg15
I0
sg16
I2742
sg17
I540
sg18
I0
sS'director_fees_ratio'
p714
F0.0
sg20
I1100000
sS'expenses_ratio'
p715
F0.038719612594486245
sg22
I3101279
sg23
I92
sg24
F0.058275758486031844
sS'deferred_income_ratio'
p716
F0.0
sg26
I194
sS'deferral_payments_ratio'
p717
F0.0
sg28
I1478269
sS'other_ratio'
p718
F0.00025697594514800863
sg30
I365038
sS'bonus_ratio'
p719
F0.5234695178940917
sS'long_term_incentive_ratio'
p720
F0.26383910640898006
sg33
I2101364
sS'salary_ratio'
p721
F0.17371478715729402
sg35
I1623010
sg36
F0.03355215171407731
ssS'PIRO JIM'
p722
(dp723
g3
I58
sg4
g13
sS'loan_advances_ratio'
p724
g42
sg6
g13
sg7
I00
sg8
g13
sg9
S'jim.piro@enron.com'
p725
sg11
g13
sg12
g13
sg14
I3
sg15
g13
sg16
I16
sg17
g13
sg18
g13
sS'director_fees_ratio'
p726
g42
sg20
g13
sS'expenses_ratio'
p727
g42
sg22
I47304
sg23
I0
sg24
F0.017241379310344827
sS'deferred_income_ratio'
p728
g42
sg26
I1
sS'deferral_payments_ratio'
p729
g42
sg28
I47304
sS'other_ratio'
p730
g42
sg30
g13
sS'bonus_ratio'
p731
g42
sS'long_term_incentive_ratio'
p732
g42
sg33
g13
sS'salary_ratio'
p733
g42
sg35
g13
sg36
F0.0
ssS'DELAINEY DAVID W'
p734
(dp735
g3
I3093
sg4
I0
sS'loan_advances_ratio'
p736
F0.0
sg6
I86174
sg7
I01
sg8
I0
sg9
S'david.delainey@enron.com'
p737
sg11
I1294981
sg12
g13
sg14
I2097
sg15
I0
sg16
I3069
sg17
I1661
sg18
I0
sS'director_fees_ratio'
p738
F0.0
sg20
I3000000
sS'expenses_ratio'
p739
F0.018149616921220586
sg22
I3614261
sg23
I66
sg24
F0.19689621726479145
sS'deferred_income_ratio'
p740
F0.0
sg26
I609
sS'deferral_payments_ratio'
p741
F0.0
sg28
I1323148
sS'other_ratio'
p742
F0.0003498330552852066
sg30
I365163
sS'bonus_ratio'
p743
F0.6318477819720769
sS'long_term_incentive_ratio'
p744
F0.27274362418199405
sg33
I4747979
sS'salary_ratio'
p745
F0.07690914386942319
sg35
I2291113
sg36
F0.021505376344086023
ssS'SULLIVAN-SHAKLOVITZ COLLEEN'
p746
(dp747
g3
g13
sg4
I181993
sS'loan_advances_ratio'
p748
F0.0
sg6
I0
sg7
I00
sg8
I0
sg9
g13
sg11
I554422
sg12
g13
sg14
g13
sg15
I0
sg16
g13
sg17
I162
sg18
I0
sS'director_fees_ratio'
p749
F0.0
sg20
I100000
sS'expenses_ratio'
p750
F0.0
sg22
I1362375
sg23
g13
sg24
g42
sS'deferred_income_ratio'
p751
F0.0
sg26
g13
sS'deferral_payments_ratio'
p752
F0.18211027901968868
sg28
g13
sS'other_ratio'
p753
F0.00016210439523052847
sg30
I162779
sS'bonus_ratio'
p754
F0.10006444150032621
sS'long_term_incentive_ratio'
p755
F0.5547792778549386
sg33
I999356
sS'salary_ratio'
p756
F0.162883897229816
sg35
I1362375
sg36
g42
ssS'WROBEL BRUCE'
p757
(dp758
g3
g13
sg4
g13
sS'loan_advances_ratio'
p759
g42
sg6
g13
sg7
I00
sg8
g13
sg9
g13
sg11
g13
sg12
g13
sg14
g13
sg15
g13
sg16
g13
sg17
g13
sg18
g13
sS'director_fees_ratio'
p760
g42
sg20
g13
sS'expenses_ratio'
p761
g42
sg22
I139130
sg23
g13
sg24
g42
sS'deferred_income_ratio'
p762
g42
sg26
g13
sS'deferral_payments_ratio'
p763
g42
sg28
g13
sS'other_ratio'
p764
g42
sg30
g13
sS'bonus_ratio'
p765
g42
sS'long_term_incentive_ratio'
p766
g42
sg33
g13
sS'salary_ratio'
p767
g42
sg35
I139130
sg36
g42
ssS'LINDHOLM TOD A'
p768
(dp769
g3
g13
sg4
I204075
sS'loan_advances_ratio'
p770
F0.0
sg6
I57727
sg7
I00
sg8
I0
sg9
S'tod.lindholm@enron.com'
p771
sg11
I175000
sg12
g13
sg14
g13
sg15
I0
sg16
g13
sg17
I2630
sg18
I0
sS'director_fees_ratio'
p772
F0.0
sg20
I200000
sS'expenses_ratio'
p773
F0.06590675302464125
sg22
I3064208
sg23
g13
sg24
g42
sS'deferred_income_ratio'
p774
F0.0
sg26
g13
sS'deferral_payments_ratio'
p775
F0.23299185170723688
sg28
I514847
sS'other_ratio'
p776
F0.003002663579517496
sg30
I236457
sS'bonus_ratio'
p777
F0.22833943570475254
sS'long_term_incentive_ratio'
p778
F0.19979700624165847
sg33
I875889
sS'salary_ratio'
p779
F0.2699622897421934
sg35
I2549361
sg36
g42
ssS'MEYER JEROME J'
p780
(dp781
g3
g13
sg4
I0
sS'loan_advances_ratio'
p782
F0.0
sg6
I2151
sg7
I00
sg8
I-38346
sg9
g13
sg11
I0
sg12
g13
sg14
g13
sg15
I0
sg16
g13
sg17
I0
sg18
I38346
sS'director_fees_ratio'
p783
F17.82705718270572
sg20
I0
sS'expenses_ratio'
p784
F1.0
sg22
g13
sg23
g13
sg24
g42
sS'deferred_income_ratio'
p785
F-17.82705718270572
sg26
g13
sS'deferral_payments_ratio'
p786
F0.0
sg28
g13
sS'other_ratio'
p787
F0.0
sg30
I0
sS'bonus_ratio'
p788
F0.0
sS'long_term_incentive_ratio'
p789
F0.0
sg33
I2151
sS'salary_ratio'
p790
F0.0
sg35
g13
sg36
g42
ssS'LAY KENNETH L'
p791
(dp792
g3
I4273
sg4
I202911
sS'loan_advances_ratio'
p793
F0.7872263707595476
sg6
I99832
sg7
I01
sg8
I-300000
sg9
S'kenneth.lay@enron.com'
p794
sg11
I3600000
sg12
g13
sg14
I2411
sg15
I81525000
sg16
I36
sg17
I10359729
sg18
I0
sS'director_fees_ratio'
p795
F0.0
sg20
I7000000
sS'expenses_ratio'
p796
F0.0009640034718879749
sg22
I49110078
sg23
I123
sg24
F0.003744441844137608
sS'deferred_income_ratio'
p797
F-0.002896877169308363
sg26
I16
sS'deferral_payments_ratio'
p798
F0.001959360811005097
sg28
I14761694
sS'other_ratio'
p799
F0.10003620806773919
sg30
I1072321
sS'bonus_ratio'
p800
F0.06759380061719514
sS'long_term_incentive_ratio'
p801
F0.03476252603170035
sg33
I103559793
sS'salary_ratio'
p802
F0.010354607410233042
sg35
I34348384
sg36
F3.4166666666666665
ssS'BUTTS ROBERT H'
p803
(dp804
g3
g13
sg4
I0
sS'loan_advances_ratio'
p805
F0.0
sg6
I9410
sg7
I00
sg8
I-75000
sg9
S'bob.butts@enron.com'
p806
sg11
I175000
sg12
g13
sg14
g13
sg15
I0
sg16
g13
sg17
I150656
sg18
I0
sS'director_fees_ratio'
p807
F0.0
sg20
I750000
sS'expenses_ratio'
p808
F0.007400230578916657
sg22
I417619
sg23
g13
sg24
g42
sS'deferred_income_ratio'
p809
F-0.058981646484457945
sg26
g13
sS'deferral_payments_ratio'
p810
F0.0
sg28
I417619
sS'other_ratio'
p811
F0.11847918577016661
sg30
I261516
sS'bonus_ratio'
p812
F0.5898164648445794
sS'long_term_incentive_ratio'
p813
F0.13762384179706855
sg33
I1271582
sS'salary_ratio'
p814
F0.20566192349372672
sg35
g13
sg36
g42
ssS'OLSON CINDY K'
p815
(dp816
g3
I1184
sg4
I77716
sS'loan_advances_ratio'
p817
F0.0
sg6
I63791
sg7
I00
sg8
I0
sg9
S'cindy.olson@enron.com'
p818
sg11
I100000
sg12
g13
sg14
I856
sg15
I0
sg16
I52
sg17
I972
sg18
I0
sS'director_fees_ratio'
p819
F0.0
sg20
I750000
sS'expenses_ratio'
p820
F0.04826957898902582
sg22
I2606763
sg23
I20
sg24
F0.01266891891891892
sS'deferred_income_ratio'
p821
F0.0
sg26
I15
sS'deferral_payments_ratio'
p822
F0.05880639276247638
sg28
I969729
sS'other_ratio'
p823
F0.0007354960852993855
sg30
I329078
sS'bonus_ratio'
p824
F0.5675124114964394
sS'long_term_incentive_ratio'
p825
F0.07566832153285859
sg33
I1321557
sS'salary_ratio'
p826
F0.2490077991339004
sg35
I1637034
sg36
F0.38461538461538464
ssS'MCDONALD REBECCA'
p827
(dp828
g3
I894
sg4
g13
sS'loan_advances_ratio'
p829
g42
sg6
g13
sg7
I00
sg8
g13
sg9
S'rebecca.mcdonald@enron.com'
p830
sg11
g13
sg12
g13
sg14
I720
sg15
g13
sg16
I13
sg17
g13
sg18
g13
sS'director_fees_ratio'
p831
g42
sg20
g13
sS'expenses_ratio'
p832
g42
sg22
I1691366
sg23
I54
sg24
F0.0011185682326621924
sS'deferred_income_ratio'
p833
g42
sg26
I1
sS'deferral_payments_ratio'
p834
g42
sg28
I934065
sS'other_ratio'
p835
g42
sg30
g13
sS'bonus_ratio'
p836
g42
sS'long_term_incentive_ratio'
p837
g42
sg33
g13
sS'salary_ratio'
p838
g42
sg35
I757301
sg36
F4.153846153846154
ssS'CUMBERLAND MICHAEL S'
p839
(dp840
g3
g13
sg4
I0
sS'loan_advances_ratio'
p841
F0.0
sg6
I22344
sg7
I00
sg8
I0
sg9
g13
sg11
I275000
sg12
g13
sg14
g13
sg15
I0
sg16
g13
sg17
I713
sg18
I0
sS'director_fees_ratio'
p842
F0.0
sg20
I325000
sS'expenses_ratio'
p843
F0.02765497131031888
sg22
I207940
sg23
g13
sg24
g42
sS'deferred_income_ratio'
p844
F0.0
sg26
g13
sS'deferral_payments_ratio'
p845
F0.0
sg28
I207940
sS'other_ratio'
p846
F0.0008824737980781132
sg30
I184899
sS'bonus_ratio'
p847
F0.4022496274549604
sS'long_term_incentive_ratio'
p848
F0.3403650693849665
sg33
I807956
sS'salary_ratio'
p849
F0.2288478580516761
sg35
g13
sg36
g42
ssS'GAHN ROBERT S'
p850
(dp851
g3
g13
sg4
I73122
sS'loan_advances_ratio'
p852
F0.0
sg6
I50080
sg7
I00
sg8
I-1042
sg9
g13
sg11
I0
sg12
g13
sg14
g13
sg15
I0
sg16
g13
sg17
I76547
sg18
I0
sS'director_fees_ratio'
p853
F0.0
sg20
I509870
sS'expenses_ratio'
p854
F0.055608299050061906
sg22
I318607
sg23
g13
sg24
g42
sS'deferred_income_ratio'
p855
F-0.0011570257110655852
sg26
g13
sS'deferral_payments_ratio'
p856
F0.08119389063775213
sg28
I235370
sS'other_ratio'
p857
F0.08499697418899937
sg30
I192008
sS'bonus_ratio'
p858
F0.5661542219779365
sS'long_term_incentive_ratio'
p859
F0.0
sg33
I900585
sS'salary_ratio'
p860
F0.21320363985631563
sg35
I83237
sg36
g42
ssS'MCCLELLAN GEORGE'
p861
(dp862
g3
I1744
sg4
I0
sS'loan_advances_ratio'
p863
F0.0
sg6
I228763
sg7
I00
sg8
I-125000
sg9
S'george.mcclellan@enron.com'
p864
sg11
I0
sg12
g13
sg14
I1469
sg15
I0
sg16
I49
sg17
I51587
sg18
I0
sS'director_fees_ratio'
p865
F0.0
sg20
I900000
sS'expenses_ratio'
p866
F0.17346786344475845
sg22
I947861
sg23
I52
sg24
F0.0
sS'deferred_income_ratio'
p867
F-0.09478579547651853
sg26
I0
sS'deferral_payments_ratio'
p868
F0.0
sg28
I441096
sS'other_ratio'
p869
F0.03911771864997729
sg30
I263413
sS'bonus_ratio'
p870
F0.6824577274309334
sS'long_term_incentive_ratio'
p871
F0.0
sg33
I1318763
sS'salary_ratio'
p872
F0.1997424859508494
sg35
I506765
sg36
F1.0612244897959184
ssS'HERMANN ROBERT J'
p873
(dp874
g3
g13
sg4
I0
sS'loan_advances_ratio'
p875
F0.0
sg6
I48357
sg7
I00
sg8
I-280000
sg9
S'robert.hermann@enron.com'
p876
sg11
I150000
sg12
g13
sg14
g13
sg15
I0
sg16
g13
sg17
I416441
sg18
I0
sS'director_fees_ratio'
p877
F0.0
sg20
I700000
sS'expenses_ratio'
p878
F0.0372704844307459
sg22
I668132
sg23
g13
sg24
g42
sS'deferred_income_ratio'
p879
F-0.21580610130092542
sg26
g13
sS'deferral_payments_ratio'
p880
F0.0
sg28
I480632
sS'other_ratio'
p881
F0.32096610225663813
sg30
I262663
sS'bonus_ratio'
p882
F0.5395152532523135
sS'long_term_incentive_ratio'
p883
F0.11561041141121005
sg33
I1297461
sS'salary_ratio'
p884
F0.20244384995001777
sg35
I187500
sg36
g42
ssS'SCRIMSHAW MATTHEW'
p885
(dp886
g3
g13
sg4
g13
sS'loan_advances_ratio'
p887
g42
sg6
g13
sg7
I00
sg8
g13
sg9
S'matthew.scrimshaw@enron.com'
p888
sg11
g13
sg12
g13
sg14
g13
sg15
g13
sg16
g13
sg17
g13
sg18
g13
sS'director_fees_ratio'
p889
g42
sg20
g13
sS'expenses_ratio'
p890
g42
sg22
I759557
sg23
g13
sg24
g42
sS'deferred_income_ratio'
p891
g42
sg26
g13
sS'deferral_payments_ratio'
p892
g42
sg28
g13
sS'other_ratio'
p893
g42
sg30
g13
sS'bonus_ratio'
p894
g42
sS'long_term_incentive_ratio'
p895
g42
sg33
g13
sS'salary_ratio'
p896
g42
sg35
I759557
sg36
g42
ssS'GATHMANN WILLIAM D'
p897
(dp898
g3
g13
sg4
g13
sS'loan_advances_ratio'
p899
g42
sg6
g13
sg7
I00
sg8
g13
sg9
g13
sg11
g13
sg12
I-72419
sg14
g13
sg15
g13
sg16
g13
sg17
g13
sg18
g13
sS'director_fees_ratio'
p900
g42
sg20
g13
sS'expenses_ratio'
p901
g42
sg22
I1945360
sg23
g13
sg24
g42
sS'deferred_income_ratio'
p902
g42
sg26
g13
sS'deferral_payments_ratio'
p903
g42
sg28
I264013
sS'other_ratio'
p904
g42
sg30
g13
sS'bonus_ratio'
p905
g42
sS'long_term_incentive_ratio'
p906
g42
sg33
g13
sS'salary_ratio'
p907
g42
sg35
I1753766
sg36
g42
ssS'HAEDICKE MARK E'
p908
(dp909
g3
I4009
sg4
I2157527
sS'loan_advances_ratio'
p910
F0.0
sg6
I76169
sg7
I00
sg8
I-934484
sg9
S'mark.haedicke@enron.com'
p911
sg11
I983346
sg12
I-329825
sg14
I1847
sg15
I0
sg16
I1941
sg17
I52382
sg18
I0
sS'director_fees_ratio'
p912
F0.0
sg20
I1150000
sS'expenses_ratio'
p913
F0.019737682573369456
sg22
I803094
sg23
I180
sg24
F0.015215764529807932
sS'deferred_income_ratio'
p914
F-0.2421529567395211
sg26
I61
sS'deferral_payments_ratio'
p915
F0.5590802435304925
sg28
I524169
sS'other_ratio'
p916
F0.013573754264310137
sg30
I374125
sS'bonus_ratio'
p917
F0.29799964499172726
sS'long_term_incentive_ratio'
p918
F0.25481457296003046
sg33
I3859065
sS'salary_ratio'
p919
F0.09694705841959127
sg35
I608750
sg36
F0.09273570324574962
ssS'BOWEN JR RAYMOND M'
p920
(dp921
g3
I1858
sg4
I0
sS'loan_advances_ratio'
p922
F0.0
sg6
I65907
sg7
I01
sg8
I-833
sg9
S'raymond.bowen@enron.com'
p923
sg11
I974293
sg12
g13
sg14
I1593
sg15
I0
sg16
I27
sg17
I1621
sg18
I0
sS'director_fees_ratio'
p924
F0.0
sg20
I1350000
sS'expenses_ratio'
p925
F0.024688069961331126
sg22
I252055
sg23
I140
sg24
F0.008073196986006458
sS'deferred_income_ratio'
p926
F-0.00031203305078047593
sg26
I15
sS'deferral_payments_ratio'
p927
F0.0
sg28
I252055
sS'other_ratio'
p928
F0.000607209574207865
sg30
I278601
sS'bonus_ratio'
p929
F0.5056958205926081
sS'long_term_incentive_ratio'
p930
F0.36495992454269177
sg33
I2669589
sS'salary_ratio'
p931
F0.10436100837994162
sg35
g13
sg36
F5.185185185185185
ssS'GILLIS JOHN'
p932
(dp933
g3
g13
sg4
g13
sS'loan_advances_ratio'
p934
g42
sg6
g13
sg7
I00
sg8
g13
sg9
g13
sg11
g13
sg12
g13
sg14
g13
sg15
g13
sg16
g13
sg17
g13
sg18
g13
sS'director_fees_ratio'
p935
g42
sg20
g13
sS'expenses_ratio'
p936
g42
sg22
I85641
sg23
g13
sg24
g42
sS'deferred_income_ratio'
p937
g42
sg26
g13
sS'deferral_payments_ratio'
p938
g42
sg28
I75838
sS'other_ratio'
p939
g42
sg30
g13
sS'bonus_ratio'
p940
g42
sS'long_term_incentive_ratio'
p941
g42
sg33
g13
sS'salary_ratio'
p942
g42
sg35
I9803
sg36
g42
ssS'FITZGERALD JAY L'
p943
(dp944
g3
I936
sg4
I0
sS'loan_advances_ratio'
p945
F0.0
sg6
I23870
sg7
I00
sg8
I0
sg9
S'jay.fitzgerald@enron.com'
p946
sg11
I556416
sg12
g13
sg14
I723
sg15
I0
sg16
I16
sg17
I285414
sg18
I0
sS'director_fees_ratio'
p947
F0.0
sg20
I350000
sS'expenses_ratio'
p948
F0.01687096293123616
sg22
I1621236
sg23
I1
sg24
F0.008547008547008548
sS'deferred_income_ratio'
p949
F0.0
sg26
I8
sS'deferral_payments_ratio'
p950
F0.0
sg28
I956775
sS'other_ratio'
p951
F0.20172639355072633
sg30
I199157
sS'bonus_ratio'
p952
F0.24737482303865338
sS'long_term_incentive_ratio'
p953
F0.3932665986739296
sg33
I1414857
sS'salary_ratio'
p954
F0.14076122180545456
sg35
I664461
sg36
F0.0625
ssS'MORAN MICHAEL P'
p955
(dp956
g3
I672
sg4
g13
sS'loan_advances_ratio'
p957
g42
sg6
g13
sg7
I00
sg8
g13
sg9
S'michael.moran@enron.com'
p958
sg11
g13
sg12
g13
sg14
I127
sg15
g13
sg16
I19
sg17
g13
sg18
g13
sS'director_fees_ratio'
p959
g42
sg20
g13
sS'expenses_ratio'
p960
g42
sg22
I221141
sg23
I0
sg24
F0.0
sS'deferred_income_ratio'
p961
g42
sg26
I0
sS'deferral_payments_ratio'
p962
g42
sg28
I161602
sS'other_ratio'
p963
g42
sg30
g13
sS'bonus_ratio'
p964
g42
sS'long_term_incentive_ratio'
p965
g42
sg33
g13
sS'salary_ratio'
p966
g42
sg35
I59539
sg36
F0.0
ssS'REDMOND BRIAN L'
p967
(dp968
g3
I1671
sg4
I0
sS'loan_advances_ratio'
p969
F0.0
sg6
I14689
sg7
I00
sg8
I0
sg9
S'brian.redmond@enron.com'
p970
sg11
I0
sg12
g13
sg14
I1063
sg15
I0
sg16
I221
sg17
I0
sg18
I0
sS'director_fees_ratio'
p971
F0.0
sg20
I0
sS'expenses_ratio'
p972
F0.1317056550314268
sg22
I7890324
sg23
I204
sg24
F0.029323758228605626
sS'deferred_income_ratio'
p973
F0.0
sg26
I49
sS'deferral_payments_ratio'
p974
F0.0
sg28
I381285
sS'other_ratio'
p975
F0.0
sg30
I96840
sS'bonus_ratio'
p976
F0.0
sS'long_term_incentive_ratio'
p977
F0.0
sg33
I111529
sS'salary_ratio'
p978
F0.8682943449685732
sg35
I7509039
sg36
F0.9230769230769231
ssS'BAZELIDES PHILIP J'
p979
(dp980
g3
g13
sg4
I684694
sS'loan_advances_ratio'
p981
F0.0
sg6
I0
sg7
I00
sg8
I0
sg9
g13
sg11
I93750
sg12
g13
sg14
g13
sg15
I0
sg16
g13
sg17
I874
sg18
I0
sS'director_fees_ratio'
p982
F0.0
sg20
I0
sS'expenses_ratio'
p983
F0.0
sg22
I1599641
sg23
g13
sg24
g42
sS'deferred_income_ratio'
p984
F0.0
sg26
g13
sS'deferral_payments_ratio'
p985
F0.7960299301505809
sg28
g13
sS'other_ratio'
p986
F0.0010161183812792396
sg30
I80818
sS'bonus_ratio'
p987
F0.0
sS'long_term_incentive_ratio'
p988
F0.10899439158458663
sg33
I860136
sS'salary_ratio'
p989
F0.0939595598835533
sg35
I1599641
sg36
g42
ssS'BELDEN TIMOTHY N'
p990
(dp991
g3
I7991
sg4
I2144013
sS'loan_advances_ratio'
p992
F0.0
sg6
I17355
sg7
I01
sg8
I-2334434
sg9
S'tim.belden@enron.com'
p993
sg11
I0
sg12
g13
sg14
I5521
sg15
I0
sg16
I484
sg17
I210698
sg18
I0
sS'director_fees_ratio'
p994
F0.0
sg20
I5249999
sS'expenses_ratio'
p995
F0.003154519660536968
sg22
I1110705
sg23
I228
sg24
F0.013515204605180828
sS'deferred_income_ratio'
p996
F-0.4243167933866872
sg26
I108
sS'deferral_payments_ratio'
p997
F0.38970505104850744
sg28
I157569
sS'other_ratio'
p998
F0.03829737732272072
sg30
I213999
sS'bonus_ratio'
p999
F0.9542624640333864
sS'long_term_incentive_ratio'
p1000
F0.0
sg33
I5501630
sS'salary_ratio'
p1001
F0.03889738132153562
sg35
I953136
sg36
F0.47107438016528924
ssS'DURAN WILLIAM D'
p1002
(dp1003
g3
I904
sg4
I0
sS'loan_advances_ratio'
p1004
F0.0
sg6
I25785
sg7
I00
sg8
I0
sg9
S'w.duran@enron.com'
p1005
sg11
I1105218
sg12
g13
sg14
I599
sg15
I0
sg16
I12
sg17
I1568
sg18
I0
sS'director_fees_ratio'
p1006
F0.0
sg20
I750000
sS'expenses_ratio'
p1007
F0.01231808903133529
sg22
I1640910
sg23
I106
sg24
F0.00331858407079646
sS'deferred_income_ratio'
p1008
F0.0
sg26
I3
sS'deferral_payments_ratio'
p1009
F0.0
sg28
I189041
sS'other_ratio'
p1010
F0.0007490697537767591
sg30
I210692
sS'bonus_ratio'
p1011
F0.3582922929416896
sS'long_term_incentive_ratio'
p1012
F0.5279881218939044
sg33
I2093263
sS'salary_ratio'
p1013
F0.10065242637929396
sg35
I1451869
sg36
F8.833333333333334
ssS'THORN TERENCE H'
p1014
(dp1015
g3
I266
sg4
I16586
sS'loan_advances_ratio'
p1016
F0.0
sg6
I46145
sg7
I00
sg8
I0
sg9
S'terence.thorn@enron.com'
p1017
sg11
I200000
sg12
g13
sg14
I73
sg15
I0
sg16
I41
sg17
I426629
sg18
I0
sS'director_fees_ratio'
p1018
F0.0
sg20
I0
sS'expenses_ratio'
p1019
F0.050627953388710116
sg22
I4817796
sg23
I0
sg24
F0.0
sS'deferred_income_ratio'
p1020
F0.0
sg26
I0
sS'deferral_payments_ratio'
p1021
F0.018197317908877363
sg28
I365320
sS'other_ratio'
p1022
F0.4680756989115182
sg30
I222093
sS'bonus_ratio'
p1023
F0.0
sS'long_term_incentive_ratio'
p1024
F0.21942985540669677
sg33
I911453
sS'salary_ratio'
p1025
F0.24366917438419755
sg35
I4452476
sg36
F0.0
ssS'FASTOW ANDREW S'
p1026
(dp1027
g3
g13
sg4
I0
sS'loan_advances_ratio'
p1028
F0.0
sg6
I55921
sg7
I01
sg8
I-1386055
sg9
S'andrew.fastow@enron.com'
p1029
sg11
I1736055
sg12
g13
sg14
g13
sg15
I0
sg16
g13
sg17
I277464
sg18
I0
sS'director_fees_ratio'
p1030
F0.0
sg20
I1300000
sS'expenses_ratio'
p1031
F0.02306892957048088
sg22
I1794412
sg23
g13
sg24
g42
sS'deferred_income_ratio'
p1032
F-0.5717852895301028
sg26
g13
sS'deferral_payments_ratio'
p1033
F0.0
sg28
I1794412
sS'other_ratio'
p1034
F0.11446142726961082
sg30
I440698
sS'bonus_ratio'
p1035
F0.5362852674599013
sS'long_term_incentive_ratio'
p1036
F0.7161697846154608
sg33
I2424083
sS'salary_ratio'
p1037
F0.1817998806146489
sg35
g13
sg36
g42
ssS'FOY JOE'
p1038
(dp1039
g3
I57
sg4
I181755
sS'loan_advances_ratio'
p1040
F0.0
sg6
I0
sg7
I00
sg8
I0
sg9
S'tracy.foy@enron.com'
p1041
sg11
I0
sg12
g13
sg14
I2
sg15
I0
sg16
I13
sg17
I0
sg18
I0
sS'director_fees_ratio'
p1042
F0.0
sg20
I0
sS'expenses_ratio'
p1043
F0.0
sg22
I343434
sg23
I0
sg24
F0.0
sS'deferred_income_ratio'
p1044
F0.0
sg26
I0
sS'deferral_payments_ratio'
p1045
F1.0
sg28
g13
sS'other_ratio'
p1046
F0.0
sg30
I0
sS'bonus_ratio'
p1047
F0.0
sS'long_term_incentive_ratio'
p1048
F0.0
sg33
I181755
sS'salary_ratio'
p1049
F0.0
sg35
I343434
sg36
F0.0
ssS'CALGER CHRISTOPHER F'
p1050
(dp1051
g3
I2598
sg4
I0
sS'loan_advances_ratio'
p1052
F0.0
sg6
I35818
sg7
I01
sg8
I-262500
sg9
S'christopher.calger@enron.com'
p1053
sg11
I375304
sg12
g13
sg14
I2188
sg15
I0
sg16
I144
sg17
I486
sg18
I0
sS'director_fees_ratio'
p1054
F0.0
sg20
I1250000
sS'expenses_ratio'
p1055
F0.021849609924254117
sg22
I126027
sg23
I199
sg24
F0.00962278675904542
sS'deferred_income_ratio'
p1056
F-0.16012961653684477
sg26
I25
sS'deferral_payments_ratio'
p1057
F0.0
sg28
I126027
sS'other_ratio'
p1058
F0.00029646854718821546
sg30
I240189
sS'bonus_ratio'
p1059
F0.7625219835087845
sS'long_term_incentive_ratio'
p1060
F0.22894204039902472
sg33
I1639297
sS'salary_ratio'
p1061
F0.14651951415759315
sg35
g13
sg36
F1.3819444444444444
ssS'RICE KENNETH D'
p1062
(dp1063
g3
I905
sg4
I0
sS'loan_advances_ratio'
p1064
F0.0
sg6
I46950
sg7
I01
sg8
I-3504386
sg9
S'ken.rice@enron.com'
p1065
sg11
I1617011
sg12
g13
sg14
I864
sg15
I0
sg16
I18
sg17
I174839
sg18
I0
sS'director_fees_ratio'
p1066
F0.0
sg20
I1750000
sS'expenses_ratio'
p1067
F0.09296109296109296
sg22
I22542539
sg23
I42
sg24
F0.004419889502762431
sS'deferred_income_ratio'
p1068
F-6.938691218691218
sg26
I4
sS'deferral_payments_ratio'
p1069
F0.0
sg28
I2748364
sS'other_ratio'
p1070
F0.3461815661815662
sg30
I420636
sS'bonus_ratio'
p1071
F3.465003465003465
sS'long_term_incentive_ratio'
p1072
F3.2016849816849815
sg33
I505050
sS'salary_ratio'
p1073
F0.8328601128601129
sg35
I19794175
sg36
F2.3333333333333335
ssS'KAMINSKI WINCENTY J'
p1074
(dp1075
g3
I4607
sg4
I0
sS'loan_advances_ratio'
p1076
F0.0
sg6
I83585
sg7
I00
sg8
I0
sg9
S'vince.kaminski@enron.com'
p1077
sg11
I323466
sg12
g13
sg14
I583
sg15
I0
sg16
I14368
sg17
I4669
sg18
I0
sS'director_fees_ratio'
p1078
F0.0
sg20
I400000
sS'expenses_ratio'
p1079
F0.07690778886311546
sg22
I976037
sg23
I41
sg24
F0.03711742999782939
sS'deferred_income_ratio'
p1080
F0.0
sg26
I171
sS'deferral_payments_ratio'
p1081
F0.0
sg28
I126027
sS'other_ratio'
p1082
F0.004296015627228403
sg30
I275101
sS'bonus_ratio'
p1083
F0.368045887961311
sS'long_term_incentive_ratio'
p1084
F0.29762582798823356
sg33
I1086821
sS'salary_ratio'
p1085
F0.2531244795601116
sg35
I850010
sg36
F0.002853563474387528
ssS'LOCKHART EUGENE E'
p1086
(dp1087
g3
g13
sg4
g13
sS'loan_advances_ratio'
p1088
g42
sg6
g13
sg7
I00
sg8
g13
sg9
g13
sg11
g13
sg12
g13
sg14
g13
sg15
g13
sg16
g13
sg17
g13
sg18
g13
sS'director_fees_ratio'
p1089
g42
sg20
g13
sS'expenses_ratio'
p1090
g42
sg22
g13
sg23
g13
sg24
g42
sS'deferred_income_ratio'
p1091
g42
sg26
g13
sS'deferral_payments_ratio'
p1092
g42
sg28
g13
sS'other_ratio'
p1093
g42
sg30
g13
sS'bonus_ratio'
p1094
g42
sS'long_term_incentive_ratio'
p1095
g42
sg33
g13
sS'salary_ratio'
p1096
g42
sg35
g13
sg36
g42
ssS'COX DAVID'
p1097
(dp1098
g3
I102
sg4
I0
sS'loan_advances_ratio'
p1099
F0.0
sg6
I27861
sg7
I00
sg8
I-41250
sg9
S'chip.cox@enron.com'
p1100
sg11
I0
sg12
g13
sg14
I71
sg15
I0
sg16
I33
sg17
I494
sg18
I0
sS'director_fees_ratio'
p1101
F0.0
sg20
I800000
sS'expenses_ratio'
p1102
F0.025296147696598763
sg22
I495633
sg23
I0
sg24
F0.0392156862745098
sS'deferred_income_ratio'
p1103
F-0.037452571425458485
sg26
I4
sS'deferral_payments_ratio'
p1104
F0.0
sg28
I378082
sS'other_ratio'
p1105
F0.0004485229159800362
sg30
I314288
sS'bonus_ratio'
p1106
F0.7263529003725282
sS'long_term_incentive_ratio'
p1107
F0.0
sg33
I1101393
sS'salary_ratio'
p1108
F0.28535500044035145
sg35
I117551
sg36
F0.0
ssS'OVERDYKE JR JERE C'
p1109
(dp1110
g3
g13
sg4
I0
sS'loan_advances_ratio'
p1111
F0.0
sg6
I18834
sg7
I00
sg8
I0
sg9
S'jere.overdyke@enron.com'
p1112
sg11
I135836
sg12
g13
sg14
g13
sg15
I0
sg16
g13
sg17
I176
sg18
I0
sS'director_fees_ratio'
p1113
F0.0
sg20
I0
sS'expenses_ratio'
p1114
F0.07540024100533654
sg22
I7307594
sg23
g13
sg24
g42
sS'deferred_income_ratio'
p1115
F0.0
sg26
g13
sS'deferral_payments_ratio'
p1116
F0.0
sg28
I2041016
sS'other_ratio'
p1117
F0.0007046003194721903
sg30
I94941
sS'bonus_ratio'
p1118
F0.0
sS'long_term_incentive_ratio'
p1119
F0.5438073238399116
sg33
I249787
sS'salary_ratio'
p1120
F0.38008783483527964
sg35
I5266578
sg36
g42
ssS'PEREIRA PAULO V. FERRAZ'
p1121
(dp1122
g3
g13
sg4
I0
sS'loan_advances_ratio'
p1123
F0.0
sg6
I27942
sg7
I00
sg8
I-101250
sg9
g13
sg11
I0
sg12
g13
sg14
g13
sg15
I0
sg16
g13
sg17
I0
sg18
I101250
sS'director_fees_ratio'
p1124
F3.623577410350011
sg20
I0
sS'expenses_ratio'
p1125
F1.0
sg22
g13
sg23
g13
sg24
g42
sS'deferred_income_ratio'
p1126
F-3.623577410350011
sg26
g13
sS'deferral_payments_ratio'
p1127
F0.0
sg28
g13
sS'other_ratio'
p1128
F0.0
sg30
I0
sS'bonus_ratio'
p1129
F0.0
sS'long_term_incentive_ratio'
p1130
F0.0
sg33
I27942
sS'salary_ratio'
p1131
F0.0
sg35
g13
sg36
g42
ssS'STABLER FRANK'
p1132
(dp1133
g3
g13
sg4
I0
sS'loan_advances_ratio'
p1134
F0.0
sg6
I16514
sg7
I00
sg8
I0
sg9
S'frank.stabler@enron.com'
p1135
sg11
I0
sg12
g13
sg14
g13
sg15
I0
sg16
g13
sg17
I356071
sg18
I0
sS'director_fees_ratio'
p1136
F0.0
sg20
I500000
sS'expenses_ratio'
p1137
F0.01484955763353047
sg22
I511734
sg23
g13
sg24
g42
sS'deferred_income_ratio'
p1138
F0.0
sg26
g13
sS'deferral_payments_ratio'
p1139
F0.0
sg28
I511734
sS'other_ratio'
p1140
F0.3201826835490389
sg30
I239502
sS'bonus_ratio'
p1141
F0.44960511183027946
sS'long_term_incentive_ratio'
p1142
F0.0
sg33
I1112087
sS'salary_ratio'
p1143
F0.21536264698715119
sg35
g13
sg36
g42
ssS'SKILLING JEFFREY K'
p1144
(dp1145
g3
I3627
sg4
I0
sS'loan_advances_ratio'
p1146
F0.0
sg6
I29336
sg7
I01
sg8
I0
sg9
S'jeff.skilling@enron.com'
p1147
sg11
I1920000
sg12
g13
sg14
I2042
sg15
I0
sg16
I108
sg17
I22122
sg18
I0
sS'director_fees_ratio'
p1148
F0.0
sg20
I5600000
sS'expenses_ratio'
p1149
F0.003378666306717852
sg22
I26093672
sg23
I88
sg24
F0.008271298593879239
sS'deferred_income_ratio'
p1150
F0.0
sg26
I30
sS'deferral_payments_ratio'
p1151
F0.0
sg28
I6843672
sS'other_ratio'
p1152
F0.002547820290333117
sg30
I1111258
sS'bonus_ratio'
p1153
F0.6449594804206426
sS'long_term_incentive_ratio'
p1154
F0.22112896471564888
sg33
I8682716
sS'salary_ratio'
p1155
F0.12798506826665756
sg35
I19250000
sg36
F0.8148148148148148
ssS'BLAKE JR. NORMAN P'
p1156
(dp1157
g3
g13
sg4
I0
sS'loan_advances_ratio'
p1158
F0.0
sg6
I1279
sg7
I00
sg8
I-113784
sg9
g13
sg11
I0
sg12
g13
sg14
g13
sg15
I0
sg16
g13
sg17
I0
sg18
I113784
sS'director_fees_ratio'
p1159
F88.9632525410477
sg20
I0
sS'expenses_ratio'
p1160
F1.0
sg22
g13
sg23
g13
sg24
g42
sS'deferred_income_ratio'
p1161
F-88.9632525410477
sg26
g13
sS'deferral_payments_ratio'
p1162
F0.0
sg28
g13
sS'other_ratio'
p1163
F0.0
sg30
I0
sS'bonus_ratio'
p1164
F0.0
sS'long_term_incentive_ratio'
p1165
F0.0
sg33
I1279
sS'salary_ratio'
p1166
F0.0
sg35
g13
sg36
g42
ssS'SHERRICK JEFFREY B'
p1167
(dp1168
g3
I613
sg4
g13
sS'loan_advances_ratio'
p1169
g42
sg6
g13
sg7
I00
sg8
g13
sg9
S'jeffrey.sherrick@enron.com'
p1170
sg11
g13
sg12
g13
sg14
I583
sg15
g13
sg16
I25
sg17
g13
sg18
g13
sS'director_fees_ratio'
p1171
g42
sg20
g13
sS'expenses_ratio'
p1172
g42
sg22
I1832468
sg23
I39
sg24
F0.02936378466557912
sS'deferred_income_ratio'
p1173
g42
sg26
I18
sS'deferral_payments_ratio'
p1174
g42
sg28
I405999
sS'other_ratio'
p1175
g42
sg30
g13
sS'bonus_ratio'
p1176
g42
sS'long_term_incentive_ratio'
p1177
g42
sg33
g13
sS'salary_ratio'
p1178
g42
sg35
I1426469
sg36
F1.56
ssS'PRENTICE JAMES'
p1179
(dp1180
g3
g13
sg4
I564348
sS'loan_advances_ratio'
p1181
F0.0
sg6
I0
sg7
I00
sg8
I0
sg9
S'james.prentice@enron.com'
p1182
sg11
I0
sg12
g13
sg14
g13
sg15
I0
sg16
g13
sg17
I0
sg18
I0
sS'director_fees_ratio'
p1183
F0.0
sg20
I0
sS'expenses_ratio'
p1184
F0.0
sg22
I1095040
sg23
g13
sg24
g42
sS'deferred_income_ratio'
p1185
F0.0
sg26
g13
sS'deferral_payments_ratio'
p1186
F1.0
sg28
I208809
sS'other_ratio'
p1187
F0.0
sg30
I0
sS'bonus_ratio'
p1188
F0.0
sS'long_term_incentive_ratio'
p1189
F0.0
sg33
I564348
sS'salary_ratio'
p1190
F0.0
sg35
I886231
sg36
g42
ssS'GRAY RODNEY'
p1191
(dp1192
g3
g13
sg4
I93585
sS'loan_advances_ratio'
p1193
F0.0
sg6
I0
sg7
I00
sg8
I0
sg9
g13
sg11
I365625
sg12
g13
sg14
g13
sg15
I0
sg16
g13
sg17
I680833
sg18
I0
sS'director_fees_ratio'
p1194
F0.0
sg20
I0
sS'expenses_ratio'
p1195
F0.0
sg22
g13
sg23
g13
sg24
g42
sS'deferred_income_ratio'
p1196
F0.0
sg26
g13
sS'deferral_payments_ratio'
p1197
F0.08161544244229753
sg28
g13
sS'other_ratio'
p1198
F0.5937541969793958
sg30
I6615
sS'bonus_ratio'
p1199
F0.0
sS'long_term_incentive_ratio'
p1200
F0.3188614216270239
sg33
I1146658
sS'salary_ratio'
p1201
F0.005768938951282772
sg35
g13
sg36
g42
ssS'PICKERING MARK R'
p1202
(dp1203
g3
I898
sg4
I0
sS'loan_advances_ratio'
p1204
F0.28845668462309526
sg6
I31653
sg7
I00
sg8
I0
sg9
S'mark.pickering@enron.com'
p1205
sg11
I0
sg12
g13
sg14
I728
sg15
I400000
sg16
I67
sg17
I0
sg18
I0
sS'director_fees_ratio'
p1206
F0.0
sg20
I300000
sS'expenses_ratio'
p1207
F0.022826298595937086
sg22
I28798
sg23
I7
sg24
F0.0
sS'deferred_income_ratio'
p1208
F0.0
sg26
I0
sS'deferral_payments_ratio'
p1209
F0.0
sg28
g13
sS'other_ratio'
p1210
F0.0
sg30
I655037
sS'bonus_ratio'
p1211
F0.21634251346732147
sS'long_term_incentive_ratio'
p1212
F0.0
sg33
I1386690
sS'salary_ratio'
p1213
F0.47237450331364617
sg35
I28798
sg36
F0.1044776119402985
ssS'NOLES JAMES L'
p1214
(dp1215
g3
g13
sg4
I774401
sS'loan_advances_ratio'
p1216
F0.0
sg6
I0
sg7
I00
sg8
I0
sg9
g13
sg11
I0
sg12
I-94556
sg14
g13
sg15
I0
sg16
g13
sg17
I0
sg18
I0
sS'director_fees_ratio'
p1217
F0.0
sg20
I0
sS'expenses_ratio'
p1218
F0.0
sg22
I368705
sg23
g13
sg24
g42
sS'deferred_income_ratio'
p1219
F0.0
sg26
g13
sS'deferral_payments_ratio'
p1220
F1.0
sg28
I463261
sS'other_ratio'
p1221
F0.0
sg30
I0
sS'bonus_ratio'
p1222
F0.0
sS'long_term_incentive_ratio'
p1223
F0.0
sg33
I774401
sS'salary_ratio'
p1224
F0.0
sg35
g13
sg36
g42
ssS'KEAN STEVEN J'
p1225
(dp1226
g3
I12754
sg4
I0
sS'loan_advances_ratio'
p1227
F0.0
sg6
I41953
sg7
I00
sg8
I0
sg9
S'steven.kean@enron.com'
p1228
sg11
I300000
sg12
g13
sg14
I3639
sg15
I0
sg16
I6759
sg17
I1231
sg18
I0
sS'director_fees_ratio'
p1229
F0.0
sg20
I1000000
sS'expenses_ratio'
p1230
F0.02400713696308258
sg22
I6153642
sg23
I140
sg24
F0.03034342167163243
sS'deferred_income_ratio'
p1231
F0.0
sg26
I387
sS'deferral_payments_ratio'
p1232
F0.0
sg28
I4131594
sS'other_ratio'
p1233
F0.0007044260386993697
sg30
I404338
sS'bonus_ratio'
p1234
F0.5722388616566773
sS'long_term_incentive_ratio'
p1235
F0.1716716584970032
sg33
I1747522
sS'salary_ratio'
p1236
F0.23137791684453757
sg35
I2022048
sg36
F0.020713123243083296
ssS'FOWLER PEGGY'
p1237
(dp1238
g3
I517
sg4
g13
sS'loan_advances_ratio'
p1239
g42
sg6
g13
sg7
I00
sg8
g13
sg9
S'kulvinder.fowler@enron.com'
p1240
sg11
g13
sg12
g13
sg14
I10
sg15
g13
sg16
I36
sg17
g13
sg18
g13
sS'director_fees_ratio'
p1241
g42
sg20
g13
sS'expenses_ratio'
p1242
g42
sg22
I1884748
sg23
I0
sg24
F0.0
sS'deferred_income_ratio'
p1243
g42
sg26
I0
sS'deferral_payments_ratio'
p1244
g42
sg28
I560170
sS'other_ratio'
p1245
g42
sg30
g13
sS'bonus_ratio'
p1246
g42
sS'long_term_incentive_ratio'
p1247
g42
sg33
g13
sS'salary_ratio'
p1248
g42
sg35
I1324578
sg36
F0.0
ssS'WASAFF GEORGE'
p1249
(dp1250
g3
I400
sg4
I831299
sS'loan_advances_ratio'
p1251
F0.0
sg6
I0
sg7
I00
sg8
I-583325
sg9
S'george.wasaff@enron.com'
p1252
sg11
I200000
sg12
g13
sg14
I337
sg15
I0
sg16
I30
sg17
I1425
sg18
I0
sS'director_fees_ratio'
p1253
F0.0
sg20
I325000
sS'expenses_ratio'
p1254
F0.0
sg22
I2056427
sg23
I22
sg24
F0.0175
sS'deferred_income_ratio'
p1255
F-0.5639286732824501
sg26
I7
sS'deferral_payments_ratio'
p1256
F0.8036572102533365
sg28
I388167
sS'other_ratio'
p1257
F0.0013776168678309544
sg30
I259996
sS'bonus_ratio'
p1258
F0.3141933207333755
sS'long_term_incentive_ratio'
p1259
F0.1933497358359234
sg33
I1034395
sS'salary_ratio'
p1260
F0.2513507895919837
sg35
I1668260
sg36
F0.7333333333333333
ssS'WHITE JR THOMAS E'
p1261
(dp1262
g3
g13
sg4
I0
sS'loan_advances_ratio'
p1263
F0.0
sg6
I81353
sg7
I00
sg8
I0
sg9
S'thomas.white@enron.com'
p1264
sg11
I0
sg12
g13
sg14
g13
sg15
I0
sg16
g13
sg17
I1085463
sg18
I0
sS'director_fees_ratio'
p1265
F0.0
sg20
I450000
sS'expenses_ratio'
p1266
F0.042056826059692125
sg22
I15144123
sg23
g13
sg24
g42
sS'deferred_income_ratio'
p1267
F0.0
sg26
g13
sS'deferral_payments_ratio'
p1268
F0.0
sg28
I13847074
sS'other_ratio'
p1269
F0.5611486802604894
sg30
I317543
sS'bonus_ratio'
p1270
F0.23263520370313887
sS'long_term_incentive_ratio'
p1271
F0.0
sg33
I1934359
sS'salary_ratio'
p1272
F0.1641592899766796
sg35
I1297049
sg36
g42
ssS'CHRISTODOULOU DIOMEDES'
p1273
(dp1274
g3
g13
sg4
g13
sS'loan_advances_ratio'
p1275
g42
sg6
g13
sg7
I00
sg8
g13
sg9
S'diomedes.christodoulou@enron.com'
p1276
sg11
g13
sg12
g13
sg14
g13
sg15
g13
sg16
g13
sg17
g13
sg18
g13
sS'director_fees_ratio'
p1277
g42
sg20
g13
sS'expenses_ratio'
p1278
g42
sg22
I6077885
sg23
g13
sg24
g42
sS'deferred_income_ratio'
p1279
g42
sg26
g13
sS'deferral_payments_ratio'
p1280
g42
sg28
I950730
sS'other_ratio'
p1281
g42
sg30
g13
sS'bonus_ratio'
p1282
g42
sS'long_term_incentive_ratio'
p1283
g42
sg33
g13
sS'salary_ratio'
p1284
g42
sg35
I5127155
sg36
g42
ssS'ALLEN PHILLIP K'
p1285
(dp1286
g3
I2902
sg4
I2869717
sS'loan_advances_ratio'
p1287
F0.0
sg6
I13868
sg7
I00
sg8
I-3081055
sg9
S'phillip.allen@enron.com'
p1288
sg11
I304805
sg12
I-126027
sg14
I1407
sg15
I0
sg16
I2195
sg17
I152
sg18
I0
sS'director_fees_ratio'
p1289
F0.0
sg20
I4175000
sS'expenses_ratio'
p1290
F0.0030924694755780093
sg22
I1729541
sg23
I47
sg24
F0.022398345968297727
sS'deferred_income_ratio'
p1291
F-0.6870542644993514
sg26
I65
sS'deferral_payments_ratio'
p1292
F0.6399273309812012
sg28
I126027
sS'other_ratio'
p1293
F3.38949639665314e-05
sg30
I201955
sS'bonus_ratio'
p1294
F0.9309965431596617
sS'long_term_incentive_ratio'
p1295
F0.06796943744617502
sg33
I4484442
sS'salary_ratio'
p1296
F0.04503458847276874
sg35
I1729541
sg36
F0.0214123006833713
ssS'SHARP VICTORIA T'
p1297
(dp1298
g3
I3136
sg4
I187469
sS'loan_advances_ratio'
p1299
F0.0
sg6
I116337
sg7
I00
sg8
I0
sg9
S'vicki.sharp@enron.com'
p1300
sg11
I422158
sg12
g13
sg14
I2477
sg15
I0
sg16
I136
sg17
I2401
sg18
I0
sS'director_fees_ratio'
p1301
F0.0
sg20
I600000
sS'expenses_ratio'
p1302
F0.07379396655018582
sg22
I494136
sg23
I24
sg24
F0.001913265306122449
sS'deferred_income_ratio'
p1303
F0.0
sg26
I6
sS'deferral_payments_ratio'
p1304
F0.1189138547082767
sg28
I213063
sS'other_ratio'
p1305
F0.00152298334740449
sg30
I248146
sS'bonus_ratio'
p1306
F0.38058725882661143
sS'long_term_incentive_ratio'
p1307
F0.2677799266862077
sg33
I1576511
sS'salary_ratio'
p1308
F0.15740200988131386
sg35
I281073
sg36
F0.17647058823529413
ssS'JAEDICKE ROBERT'
p1309
(dp1310
g3
g13
sg4
I0
sS'loan_advances_ratio'
p1311
F0.0
sg6
I0
sg7
I00
sg8
I-25000
sg9
g13
sg11
I0
sg12
I-44093
sg14
g13
sg15
I0
sg16
g13
sg17
I0
sg18
I108750
sS'director_fees_ratio'
p1312
F1.2985074626865671
sg20
I0
sS'expenses_ratio'
p1313
F0.0
sg22
I431750
sg23
g13
sg24
g42
sS'deferred_income_ratio'
p1314
F-0.29850746268656714
sg26
g13
sS'deferral_payments_ratio'
p1315
F0.0
sg28
I44093
sS'other_ratio'
p1316
F0.0
sg30
I0
sS'bonus_ratio'
p1317
F0.0
sS'long_term_incentive_ratio'
p1318
F0.0
sg33
I83750
sS'salary_ratio'
p1319
F0.0
sg35
I431750
sg36
g42
ssS'WINOKUR JR. HERBERT S'
p1320
(dp1321
g3
g13
sg4
I0
sS'loan_advances_ratio'
p1322
F0.0
sg6
I1413
sg7
I00
sg8
I-25000
sg9
g13
sg11
I0
sg12
g13
sg14
g13
sg15
I0
sg16
g13
sg17
I0
sg18
I108579
sS'director_fees_ratio'
p1323
F1.2775202371987953
sg20
I0
sS'expenses_ratio'
p1324
F0.016625094126506024
sg22
g13
sg23
g13
sg24
g42
sS'deferred_income_ratio'
p1325
F-0.2941453313253012
sg26
g13
sS'deferral_payments_ratio'
p1326
F0.0
sg28
g13
sS'other_ratio'
p1327
F0.0
sg30
I0
sS'bonus_ratio'
p1328
F0.0
sS'long_term_incentive_ratio'
p1329
F0.0
sg33
I84992
sS'salary_ratio'
p1330
F0.0
sg35
g13
sg36
g42
ssS'BROWN MICHAEL'
p1331
(dp1332
g3
I1486
sg4
I0
sS'loan_advances_ratio'
p1333
F0.0
sg6
I49288
sg7
I00
sg8
I0
sg9
S'michael.brown@enron.com'
p1334
sg11
I0
sg12
g13
sg14
I761
sg15
I0
sg16
I41
sg17
I0
sg18
I0
sS'director_fees_ratio'
p1335
F0.0
sg20
I0
sS'expenses_ratio'
p1336
F1.0
sg22
g13
sg23
I13
sg24
F0.0006729475100942127
sS'deferred_income_ratio'
p1337
F0.0
sg26
I1
sS'deferral_payments_ratio'
p1338
F0.0
sg28
g13
sS'other_ratio'
p1339
F0.0
sg30
I0
sS'bonus_ratio'
p1340
F0.0
sS'long_term_incentive_ratio'
p1341
F0.0
sg33
I49288
sS'salary_ratio'
p1342
F0.0
sg35
g13
sg36
F0.3170731707317073
ssS'BADUM JAMES P'
p1343
(dp1344
g3
g13
sg4
I178980
sS'loan_advances_ratio'
p1345
F0.0
sg6
I3486
sg7
I00
sg8
I0
sg9
g13
sg11
I0
sg12
g13
sg14
g13
sg15
I0
sg16
g13
sg17
I0
sg18
I0
sS'director_fees_ratio'
p1346
F0.0
sg20
I0
sS'expenses_ratio'
p1347
F0.019104929137483146
sg22
I257817
sg23
g13
sg24
g42
sS'deferred_income_ratio'
p1348
F0.0
sg26
g13
sS'deferral_payments_ratio'
p1349
F0.9808950708625168
sg28
g13
sS'other_ratio'
p1350
F0.0
sg30
I0
sS'bonus_ratio'
p1351
F0.0
sS'long_term_incentive_ratio'
p1352
F0.0
sg33
I182466
sS'salary_ratio'
p1353
F0.0
sg35
I257817
sg36
g42
ssS'HUGHES JAMES A'
p1354
(dp1355
g3
I719
sg4
g13
sS'loan_advances_ratio'
p1356
g42
sg6
g13
sg7
I00
sg8
g13
sg9
S'james.hughes@enron.com'
p1357
sg11
g13
sg12
g13
sg14
I589
sg15
g13
sg16
I34
sg17
g13
sg18
g13
sS'director_fees_ratio'
p1358
g42
sg20
g13
sS'expenses_ratio'
p1359
g42
sg22
I1118394
sg23
I35
sg24
F0.006954102920723227
sS'deferred_income_ratio'
p1360
g42
sg26
I5
sS'deferral_payments_ratio'
p1361
g42
sg28
I363428
sS'other_ratio'
p1362
g42
sg30
g13
sS'bonus_ratio'
p1363
g42
sS'long_term_incentive_ratio'
p1364
g42
sg33
g13
sS'salary_ratio'
p1365
g42
sg35
I754966
sg36
F1.0294117647058822
ssS'REYNOLDS LAWRENCE'
p1366
(dp1367
g3
g13
sg4
I51365
sS'loan_advances_ratio'
p1368
F0.0
sg6
I8409
sg7
I00
sg8
I-200000
sg9
g13
sg11
I156250
sg12
I-140264
sg14
g13
sg15
I0
sg16
g13
sg17
I202052
sg18
I0
sS'director_fees_ratio'
p1369
F0.0
sg20
I100000
sS'expenses_ratio'
p1370
F0.021316940237023893
sg22
I4221891
sg23
g13
sg24
g42
sS'deferred_income_ratio'
p1371
F-0.5070029786424995
sg26
g13
sS'deferral_payments_ratio'
p1372
F0.13021103998985994
sg28
I201483
sS'other_ratio'
p1373
F0.5122048292033715
sg30
I76399
sS'bonus_ratio'
p1374
F0.2535014893212498
sS'long_term_incentive_ratio'
p1375
F0.39609607706445277
sg33
I394475
sS'salary_ratio'
p1376
F0.1936726028265416
sg35
I4160672
sg36
g42
ssS'DIMICHELE RICHARD G'
p1377
(dp1378
g3
g13
sg4
I0
sS'loan_advances_ratio'
p1379
F0.0
sg6
I35812
sg7
I00
sg8
I0
sg9
S'richard.dimichele@enron.com'
p1380
sg11
I694862
sg12
g13
sg14
g13
sg15
I0
sg16
g13
sg17
I374689
sg18
I0
sS'director_fees_ratio'
p1381
F0.0
sg20
I1000000
sS'expenses_ratio'
p1382
F0.015122346505776025
sg22
I8317782
sg23
g13
sg24
g42
sS'deferred_income_ratio'
p1383
F0.0
sg26
g13
sS'deferral_payments_ratio'
p1384
F0.0
sg28
I126027
sS'other_ratio'
p1385
F0.1582200628253857
sg30
I262788
sS'bonus_ratio'
p1386
F0.42227037042823706
sS'long_term_incentive_ratio'
p1387
F0.2934196341365057
sg33
I2368151
sS'salary_ratio'
p1388
F0.11096758610409556
sg35
I8191755
sg36
g42
ssS'BHATNAGAR SANJAY'
p1389
(dp1390
g3
I523
sg4
I0
sS'loan_advances_ratio'
p1391
F0.0
sg6
I137864
sg7
I00
sg8
I0
sg9
S'sanjay.bhatnagar@enron.com'
p1392
sg11
I0
sg12
I-2604490
sg14
I463
sg15
I0
sg16
I29
sg17
I0
sg18
I0
sS'director_fees_ratio'
p1393
F0.0
sg20
I0
sS'expenses_ratio'
p1394
F1.0
sS'total_stock_value'
p1395
I15456290
sg23
I0
sg24
F0.0019120458891013384
sS'deferred_income_ratio'
p1396
F0.0
sg26
I1
sS'deferral_payments_ratio'
p1397
F0.0
sg28
I2604490
sS'other_ratio'
p1398
F0.0
sg30
I0
sS'bonus_ratio'
p1399
F0.0
sS'long_term_incentive_ratio'
p1400
F0.0
sg33
I137864
sS'salary_ratio'
p1401
F0.0
sg35
I15456290
sg36
F0.0
ssS'CARTER REBECCA C'
p1402
(dp1403
g3
I312
sg4
I0
sS'loan_advances_ratio'
p1404
F0.0
sg6
I0
sg7
I00
sg8
I-159792
sg9
S'rebecca.carter@enron.com'
p1405
sg11
I75000
sg12
I-307301
sg14
I196
sg15
I0
sg16
I15
sg17
I540
sg18
I0
sS'director_fees_ratio'
p1406
F0.0
sg20
I300000
sS'expenses_ratio'
p1407
F0.0
sg22
g13
sg23
I29
sg24
F0.022435897435897436
sS'deferred_income_ratio'
p1408
F-0.33460298980017045
sg26
I7
sS'deferral_payments_ratio'
p1409
F0.0
sg28
I307301
sS'other_ratio'
p1410
F0.0011307550721693955
sg30
I261809
sS'bonus_ratio'
p1411
F0.6281972623163308
sS'long_term_incentive_ratio'
p1412
F0.1570493155790827
sg33
I477557
sS'salary_ratio'
p1413
F0.5482256568325875
sg35
g13
sg36
F1.9333333333333333
ssS'BUCHANAN HAROLD G'
p1414
(dp1415
g3
I1088
sg4
I0
sS'loan_advances_ratio'
p1416
F0.0
sg6
I600
sg7
I00
sg8
I0
sg9
S'john.buchanan@enron.com'
p1417
sg11
I304805
sg12
g13
sg14
I23
sg15
I0
sg16
I125
sg17
I1215
sg18
I0
sS'director_fees_ratio'
p1418
F0.0
sg20
I500000
sS'expenses_ratio'
p1419
F0.000568916129436005
sg22
I1014505
sg23
I0
sg24
F0.0
sS'deferred_income_ratio'
p1420
F0.0
sg26
I0
sS'deferral_payments_ratio'
p1421
F0.0
sg28
I189041
sS'other_ratio'
p1422
F0.0011520551621079101
sg30
I248017
sS'bonus_ratio'
p1423
F0.47409677453000415
sS'long_term_incentive_ratio'
p1424
F0.2890141347212358
sg33
I1054637
sS'salary_ratio'
p1425
F0.23516811945721608
sg35
I825464
sg36
F0.0
ssS'YEAP SOON'
p1426
(dp1427
g3
g13
sg4
I0
sS'loan_advances_ratio'
p1428
F0.0
sg6
I55097
sg7
I00
sg8
I0
sg9
g13
sg11
I0
sg12
g13
sg14
g13
sg15
I0
sg16
g13
sg17
I0
sg18
I0
sS'director_fees_ratio'
p1429
F0.0
sg20
I0
sS'expenses_ratio'
p1430
F1.0
sg22
I192758
sg23
g13
sg24
g42
sS'deferred_income_ratio'
p1431
F0.0
sg26
g13
sS'deferral_payments_ratio'
p1432
F0.0
sg28
g13
sS'other_ratio'
p1433
F0.0
sg30
I0
sS'bonus_ratio'
p1434
F0.0
sS'long_term_incentive_ratio'
p1435
F0.0
sg33
I55097
sS'salary_ratio'
p1436
F0.0
sg35
I192758
sg36
g42
ssS'MURRAY JULIA H'
p1437
(dp1438
g3
I2192
sg4
I0
sS'loan_advances_ratio'
p1439
F0.0
sg6
I57580
sg7
I00
sg8
I0
sg9
S'julia.murray@enron.com'
p1440
sg11
I125000
sg12
g13
sg14
I395
sg15
I0
sg16
I45
sg17
I330
sg18
I0
sS'director_fees_ratio'
p1441
F0.0
sg20
I400000
sS'expenses_ratio'
p1442
F0.07089439222648776
sg22
I597461
sg23
I11
sg24
F0.0009124087591240876
sS'deferred_income_ratio'
p1443
F0.0
sg26
I2
sS'deferral_payments_ratio'
p1444
F0.0
sg28
I196983
sS'other_ratio'
p1445
F0.0004063068675710483
sg30
I229284
sS'bonus_ratio'
p1446
F0.4924931728133919
sS'long_term_incentive_ratio'
p1447
F0.15390411650418495
sg33
I812194
sS'salary_ratio'
p1448
F0.2823020115883644
sg35
I400478
sg36
F0.24444444444444444
ssS'GARLAND C KEVIN'
p1449
(dp1450
g3
I209
sg4
I0
sS'loan_advances_ratio'
p1451
F0.0
sg6
I48405
sg7
I00
sg8
I0
sg9
S'kevin.garland@enron.com'
p1452
sg11
I375304
sg12
g13
sg14
I178
sg15
I0
sg16
I44
sg17
I60814
sg18
I0
sS'director_fees_ratio'
p1453
F0.0
sg20
I850000
sS'expenses_ratio'
p1454
F0.03090070725944784
sg22
I896153
sg23
I10
sg24
F0.1291866028708134
sS'deferred_income_ratio'
p1455
F0.0
sg26
I27
sS'deferral_payments_ratio'
p1456
F0.0
sg28
I259907
sS'other_ratio'
p1457
F0.038822345032043404
sg30
I231946
sS'bonus_ratio'
p1458
F0.5426216541789208
sS'long_term_incentive_ratio'
p1459
F0.23958597329407733
sg33
I1566469
sS'salary_ratio'
p1460
F0.14806932023551056
sg35
I636246
sg36
F0.22727272727272727
ssS'DODSON KEITH'
p1461
(dp1462
g3
I176
sg4
I0
sS'loan_advances_ratio'
p1463
F0.0
sg6
I28164
sg7
I00
sg8
I0
sg9
S'keith.dodson@enron.com'
p1464
sg11
I0
sg12
g13
sg14
I114
sg15
I0
sg16
I14
sg17
I774
sg18
I0
sS'director_fees_ratio'
p1465
F0.0
sg20
I70000
sS'expenses_ratio'
p1466
F0.08802873029714854
sg22
g13
sg23
I10
sg24
F0.017045454545454544
sS'deferred_income_ratio'
p1467
F0.0
sg26
I3
sS'deferral_payments_ratio'
p1468
F0.0
sg28
g13
sS'other_ratio'
p1469
F0.0024191960392697404
sg30
I221003
sS'bonus_ratio'
p1470
F0.21879033946883958
sS'long_term_incentive_ratio'
p1471
F0.0
sg33
I319941
sS'salary_ratio'
p1472
F0.6907617341947422
sg35
g13
sg36
F0.7142857142857143
ssS'YEAGER F SCOTT'
p1473
(dp1474
g3
g13
sg4
I0
sS'loan_advances_ratio'
p1475
F0.0
sg6
I53947
sg7
I01
sg8
I0
sg9
S'scott.yeager@enron.com'
p1476
sg11
I0
sg12
g13
sg14
g13
sg15
I0
sg16
g13
sg17
I147950
sg18
I0
sS'director_fees_ratio'
p1477
F0.0
sg20
I0
sS'expenses_ratio'
p1478
F0.14972800444074383
sg22
I11884758
sg23
g13
sg24
g42
sS'deferred_income_ratio'
p1479
F0.0
sg26
g13
sS'deferral_payments_ratio'
p1480
F0.0
sg28
I3576206
sS'other_ratio'
p1481
F0.4106300305301138
sg30
I158403
sS'bonus_ratio'
p1482
F0.0
sS'long_term_incentive_ratio'
p1483
F0.0
sg33
I360300
sS'salary_ratio'
p1484
F0.4396419650291424
sg35
I8308552
sg36
g42
ssS'HIRKO JOSEPH'
p1485
(dp1486
g3
g13
sg4
I10259
sS'loan_advances_ratio'
p1487
F0.0
sg6
I77978
sg7
I01
sg8
I0
sg9
S'joe.hirko@enron.com'
p1488
sg11
I0
sg12
g13
sg14
g13
sg15
I0
sg16
g13
sg17
I2856
sg18
I0
sS'director_fees_ratio'
p1489
F0.0
sg20
I0
sS'expenses_ratio'
p1490
F0.8560262588782892
sg22
I30766064
sg23
g13
sg24
g42
sS'deferred_income_ratio'
p1491
F0.0
sg26
g13
sS'deferral_payments_ratio'
p1492
F0.1126211673783935
sg28
g13
sS'other_ratio'
p1493
F0.03135257374331727
sg30
I0
sS'bonus_ratio'
p1494
F0.0
sS'long_term_incentive_ratio'
p1495
F0.0
sg33
I91093
sS'salary_ratio'
p1496
F0.0
sg35
I30766064
sg36
g42
ssS'DIETRICH JANET R'
p1497
(dp1498
g3
I2572
sg4
I0
sS'loan_advances_ratio'
p1499
F0.0
sg6
I3475
sg7
I00
sg8
I0
sg9
S'janet.dietrich@enron.com'
p1500
sg11
I556416
sg12
g13
sg14
I1902
sg15
I0
sg16
I63
sg17
I473
sg18
I0
sS'director_fees_ratio'
p1501
F0.0
sg20
I600000
sS'expenses_ratio'
p1502
F0.0024637282482927606
sg22
I1865087
sg23
I305
sg24
F0.005443234836702955
sS'deferred_income_ratio'
p1503
F0.0
sg26
I14
sS'deferral_payments_ratio'
p1504
F0.0
sg28
I315068
sS'other_ratio'
p1505
F0.00033535063638632395
sg30
I250100
sS'bonus_ratio'
p1506
F0.4253919277627788
sS'long_term_incentive_ratio'
p1507
F0.3944914581300905
sg33
I1410464
sS'salary_ratio'
p1508
F0.1773175352224516
sg35
I1550019
sg36
F4.841269841269841
ssS'DERRICK JR. JAMES V'
p1509
(dp1510
g3
I2181
sg4
I0
sS'loan_advances_ratio'
p1511
F0.0
sg6
I51124
sg7
I00
sg8
I-1284000
sg9
S'james.derrick@enron.com'
p1512
sg11
I484000
sg12
I-1787380
sg14
I1401
sg15
I0
sg16
I909
sg17
I7482
sg18
I0
sS'director_fees_ratio'
p1513
F0.0
sg20
I800000
sS'expenses_ratio'
p1514
F0.09278722859771935
sg22
I8831913
sg23
I64
sg24
F0.009170105456212746
sS'deferred_income_ratio'
p1515
F-2.330388888183077
sg26
I20
sS'deferral_payments_ratio'
p1516
F0.0
sg28
I1787380
sS'other_ratio'
p1517
F0.01357941562413223
sg30
I492375
sS'bonus_ratio'
p1518
F1.4519556935720106
sS'long_term_incentive_ratio'
p1519
F0.8784331946110664
sg33
I550981
sS'salary_ratio'
p1520
F0.8936333557781484
sg35
I8831913
sg36
F0.0704070407040704
ssS'FREVERT MARK A'
p1521
(dp1522
g3
I3275
sg4
I6426990
sS'loan_advances_ratio'
p1523
F0.1159250266482655
sg6
I86987
sg7
I00
sg8
I-3367011
sg9
S'mark.frevert@enron.com'
p1524
sg11
I1617011
sg12
g13
sg14
I2979
sg15
I2000000
sg16
I21
sg17
I7427621
sg18
I0
sS'director_fees_ratio'
p1525
F0.0
sg20
I2000000
sS'expenses_ratio'
p1526
F0.005041985146526336
sg22
I14622185
sg23
I242
sg24
F0.00183206106870229
sS'deferred_income_ratio'
p1527
F-0.19516041995000152
sg26
I6
sS'deferral_payments_ratio'
p1528
F0.37252449350906797
sg28
I4188667
sS'other_ratio'
p1529
F0.4305235811791082
sg30
I1060932
sS'bonus_ratio'
p1530
F0.1159250266482655
sS'long_term_incentive_ratio'
p1531
F0.09372602163276922
sg33
I17252530
sS'salary_ratio'
p1532
F0.06149428518599881
sg35
I10433518
sg36
F11.523809523809524
ssS'PAI LOU L'
p1533
(dp1534
g3
g13
sg4
I0
sS'loan_advances_ratio'
p1535
F0.0
sg6
I32047
sg7
I00
sg8
I0
sg9
S'lou.pai@enron.com'
p1536
sg11
I0
sg12
g13
sg14
g13
sg15
I0
sg16
g13
sg17
I1829457
sg18
I0
sS'director_fees_ratio'
p1537
F0.0
sg20
I1000000
sS'expenses_ratio'
p1538
F0.01026034911504609
sg22
I23817930
sg23
g13
sg24
g42
sS'deferred_income_ratio'
p1539
F0.0
sg26
g13
sS'deferral_payments_ratio'
p1540
F0.0
sg28
I8453763
sS'other_ratio'
p1541
F0.5857293197792266
sg30
I261879
sS'bonus_ratio'
p1542
F0.3201656665224854
sS'long_term_incentive_ratio'
p1543
F0.0
sg33
I3123383
sS'salary_ratio'
p1544
F0.08384466458324195
sg35
I15364167
sg36
g42
ssS'BAY FRANKLIN R'
p1545
(dp1546
g3
g13
sg4
I260455
sS'loan_advances_ratio'
p1547
F0.0
sg6
I129142
sg7
I00
sg8
I-201641
sg9
S'frank.bay@enron.com'
p1548
sg11
I0
sg12
I-82782
sg14
g13
sg15
I0
sg16
g13
sg17
I69
sg18
I0
sS'director_fees_ratio'
p1549
F0.0
sg20
I400000
sS'expenses_ratio'
p1550
F0.15602588389940267
sg22
I63014
sg23
g13
sg24
g42
sS'deferred_income_ratio'
p1551
F-0.24361722178191025
sg26
g13
sS'deferral_payments_ratio'
p1552
F0.3146747114882759
sg28
I145796
sS'other_ratio'
p1553
F8.336394038390907e-05
sg30
I239671
sS'bonus_ratio'
p1554
F0.48326921961686414
sS'long_term_incentive_ratio'
p1555
F0.0
sg33
I827696
sS'salary_ratio'
p1556
F0.2895640428369836
sg35
g13
sg36
g42
ssS'HAYSLETT RODERICK J'
p1557
(dp1558
g3
I2649
sg4
g13
sS'loan_advances_ratio'
p1559
g42
sg6
g13
sg7
I00
sg8
g13
sg9
S'rod.hayslett@enron.com'
p1560
sg11
g13
sg12
g13
sg14
I571
sg15
g13
sg16
I1061
sg17
g13
sg18
g13
sS'director_fees_ratio'
p1561
g42
sg20
g13
sS'expenses_ratio'
p1562
g42
sg22
I346663
sg23
I35
sg24
F0.014345035862589657
sS'deferred_income_ratio'
p1563
g42
sg26
I38
sS'deferral_payments_ratio'
p1564
g42
sg28
I346663
sS'other_ratio'
p1565
g42
sg30
g13
sS'bonus_ratio'
p1566
g42
sS'long_term_incentive_ratio'
p1567
g42
sg33
g13
sS'salary_ratio'
p1568
g42
sg35
g13
sg36
F0.03298774740810556
ssS'FUGH JOHN L'
p1569
(dp1570
g3
g13
sg4
I50591
sS'loan_advances_ratio'
p1571
F0.0
sg6
I0
sg7
I00
sg8
I0
sg9
g13
sg11
I0
sg12
g13
sg14
g13
sg15
I0
sg16
g13
sg17
I0
sg18
I0
sS'director_fees_ratio'
p1572
F0.0
sg20
I0
sS'expenses_ratio'
p1573
F0.0
sg22
I176378
sg23
g13
sg24
g42
sS'deferred_income_ratio'
p1574
F0.0
sg26
g13
sS'deferral_payments_ratio'
p1575
F1.0
sg28
g13
sS'other_ratio'
p1576
F0.0
sg30
I0
sS'bonus_ratio'
p1577
F0.0
sS'long_term_incentive_ratio'
p1578
F0.0
sg33
I50591
sS'salary_ratio'
p1579
F0.0
sg35
I176378
sg36
g42
ssS'FALLON JAMES B'
p1580
(dp1581
g3
I1755
sg4
I0
sS'loan_advances_ratio'
p1582
F0.0
sg6
I95924
sg7
I00
sg8
I0
sg9
S'jim.fallon@enron.com'
p1583
sg11
I374347
sg12
g13
sg14
I1604
sg15
I0
sg16
I75
sg17
I401481
sg18
I0
sS'director_fees_ratio'
p1584
F0.0
sg20
I2500000
sS'expenses_ratio'
p1585
F0.026092254796890386
sg22
I2332399
sg23
I42
sg24
F0.021082621082621083
sS'deferred_income_ratio'
p1586
F0.0
sg26
I37
sS'deferral_payments_ratio'
p1587
F0.0
sg28
I1392142
sS'other_ratio'
p1588
F0.10920671102237552
sg30
I304588
sS'bonus_ratio'
p1589
F0.6800241544579664
sS'long_term_incentive_ratio'
p1590
F0.10182600085955053
sg33
I3676340
sS'salary_ratio'
p1591
F0.08285087886321722
sg35
I940257
sg36
F0.56
ssS'KOENIG MARK E'
p1592
(dp1593
g3
I2374
sg4
I0
sS'loan_advances_ratio'
p1594
F0.0
sg6
I127017
sg7
I01
sg8
I0
sg9
S'mark.koenig@enron.com'
p1595
sg11
I300000
sg12
g13
sg14
I2271
sg15
I0
sg16
I61
sg17
I150458
sg18
I0
sS'director_fees_ratio'
p1596
F0.0
sg20
I700000
sS'expenses_ratio'
p1597
F0.08001469049483408
sg22
I1920055
sg23
I53
sg24
F0.006318449873631003
sS'deferred_income_ratio'
p1598
F0.0
sg26
I15
sS'deferral_payments_ratio'
p1599
F0.0
sg28
I1248318
sS'other_ratio'
p1600
F0.0947814095945562
sg30
I309946
sS'bonus_ratio'
p1601
F0.44096682606567505
sS'long_term_incentive_ratio'
p1602
F0.18898578259957505
sg33
I1587421
sS'salary_ratio'
p1603
F0.19525129124535962
sg35
I671737
sg36
F0.8688524590163934
ssS'SAVAGE FRANK'
p1604
(dp1605
g3
g13
sg4
I0
sS'loan_advances_ratio'
p1606
F0.0
sg6
I0
sg7
I00
sg8
I-121284
sg9
g13
sg11
I0
sg12
g13
sg14
g13
sg15
I0
sg16
g13
sg17
I0
sg18
I125034
sS'director_fees_ratio'
p1607
F33.3424
sg20
I0
sS'expenses_ratio'
p1608
F0.0
sg22
g13
sg23
g13
sg24
g42
sS'deferred_income_ratio'
p1609
F-32.3424
sg26
g13
sS'deferral_payments_ratio'
p1610
F0.0
sg28
g13
sS'other_ratio'
p1611
F0.0
sg30
I0
sS'bonus_ratio'
p1612
F0.0
sS'long_term_incentive_ratio'
p1613
F0.0
sg33
I3750
sS'salary_ratio'
p1614
F0.0
sg35
g13
sg36
g42
ssS'IZZO LAWRENCE L'
p1615
(dp1616
g3
I496
sg4
I0
sS'loan_advances_ratio'
p1617
F0.0
sg6
I28093
sg7
I00
sg8
I0
sg9
S'larry.izzo@enron.com'
p1618
sg11
I312500
sg12
g13
sg14
I437
sg15
I0
sg16
I19
sg17
I1553729
sg18
I0
sS'director_fees_ratio'
p1619
F0.0
sg20
I0
sS'expenses_ratio'
p1620
F0.014191279432773152
sg22
I5819980
sg23
I28
sg24
F0.010080645161290322
sS'deferred_income_ratio'
p1621
F0.0
sg26
I5
sS'deferral_payments_ratio'
p1622
F0.0
sg28
I3654808
sS'other_ratio'
p1623
F0.784871761712996
sg30
I85274
sS'bonus_ratio'
p1624
F0.0
sS'long_term_incentive_ratio'
p1625
F0.15786049274700495
sg33
I1979596
sS'salary_ratio'
p1626
F0.043076466107225916
sg35
I2165172
sg36
F1.4736842105263157
ssS'TILNEY ELIZABETH A'
p1627
(dp1628
g3
I460
sg4
I0
sS'loan_advances_ratio'
p1629
F0.0
sg6
I0
sg7
I00
sg8
I-575000
sg9
S'elizabeth.tilney@enron.com'
p1630
sg11
I275000
sg12
g13
sg14
I379
sg15
I0
sg16
I19
sg17
I152055
sg18
I0
sS'director_fees_ratio'
p1631
F0.0
sg20
I300000
sS'expenses_ratio'
p1632
F0.0
sg22
I1168042
sg23
I10
sg24
F0.02391304347826087
sS'deferred_income_ratio'
p1633
F-1.4396847215649748
sg26
I11
sS'deferral_payments_ratio'
p1634
F0.0
sg28
I576792
sS'other_ratio'
p1635
F0.3807152353696735
sg30
I247338
sS'bonus_ratio'
p1636
F0.7511398547295521
sS'long_term_incentive_ratio'
p1637
F0.6885448668354227
sg33
I399393
sS'salary_ratio'
p1638
F0.6192847646303266
sg35
I591250
sg36
F0.5263157894736842
ssS'MARTIN AMANDA K'
p1639
(dp1640
g3
I1522
sg4
I85430
sS'loan_advances_ratio'
p1641
F0.0
sg6
I8211
sg7
I00
sg8
I0
sg9
S'a..martin@enron.com'
p1642
sg11
I5145434
sg12
g13
sg14
I477
sg15
I0
sg16
I230
sg17
I2818454
sg18
I0
sS'director_fees_ratio'
p1643
F0.0
sg20
I0
sS'expenses_ratio'
p1644
F0.0009766842361189749
sg22
I2070306
sg23
I8
sg24
F0.0
sS'deferred_income_ratio'
p1645
F0.0
sg26
I0
sS'deferral_payments_ratio'
p1646
F0.010161750614010964
sg28
g13
sS'other_ratio'
p1647
F0.3352502243364352
sg30
I349487
sS'bonus_ratio'
p1648
F0.0
sS'long_term_incentive_ratio'
p1649
F0.6120404671526735
sg33
I8407016
sS'salary_ratio'
p1650
F0.04157087366076144
sg35
I2070306
sg36
F0.034782608695652174
ssS'BUY RICHARD B'
p1651
(dp1652
g3
I3523
sg4
I649584
sS'loan_advances_ratio'
p1653
F0.0
sg6
I0
sg7
I00
sg8
I-694862
sg9
S'rick.buy@enron.com'
p1654
sg11
I769862
sg12
g13
sg14
I2333
sg15
I0
sg16
I1053
sg17
I400572
sg18
I0
sS'director_fees_ratio'
p1655
F0.0
sg20
I900000
sS'expenses_ratio'
p1656
F0.0
sg22
I3444470
sg23
I156
sg24
F0.02015327845586148
sS'deferred_income_ratio'
p1657
F-0.29497024666108024
sg26
I71
sS'deferral_payments_ratio'
p1658
F0.27574964914917083
sg28
I901657
sS'other_ratio'
p1659
F0.17004357936615072
sg30
I330546
sS'bonus_ratio'
p1660
F0.38205171961479
sS'long_term_incentive_ratio'
p1661
F0.32680788996231275
sg33
I2355702
sS'salary_ratio'
p1662
F0.14031740856865596
sg35
I2542813
sg36
F0.14814814814814814
ssS'GRAMM WENDY L'
p1663
(dp1664
g3
g13
sg4
I0
sS'loan_advances_ratio'
p1665
F0.0
sg6
I0
sg7
I00
sg8
I0
sg9
g13
sg11
I0
sg12
g13
sg14
g13
sg15
I0
sg16
g13
sg17
I0
sg18
I119292
sS'director_fees_ratio'
p1666
F1.0
sg20
I0
sS'expenses_ratio'
p1667
F0.0
sg22
g13
sg23
g13
sg24
g42
sS'deferred_income_ratio'
p1668
F0.0
sg26
g13
sS'deferral_payments_ratio'
p1669
F0.0
sg28
g13
sS'other_ratio'
p1670
F0.0
sg30
I0
sS'bonus_ratio'
p1671
F0.0
sS'long_term_incentive_ratio'
p1672
F0.0
sg33
I119292
sS'salary_ratio'
p1673
F0.0
sg35
g13
sg36
g42
ssS'CAUSEY RICHARD A'
p1674
(dp1675
g3
I1892
sg4
I0
sS'loan_advances_ratio'
p1676
F0.0
sg6
I30674
sg7
I01
sg8
I-235000
sg9
S'richard.causey@enron.com'
p1677
sg11
I350000
sg12
g13
sg14
I1585
sg15
I0
sg16
I49
sg17
I307895
sg18
I0
sS'director_fees_ratio'
p1678
F0.0
sg20
I1000000
sS'expenses_ratio'
p1679
F0.016414110334243386
sg22
I2502063
sg23
I58
sg24
F0.006342494714587738
sS'deferred_income_ratio'
p1680
F-0.12575197002501126
sg26
I12
sS'deferral_payments_ratio'
p1681
F0.0
sg28
I2502063
sS'other_ratio'
p1682
F0.16475916089723763
sg30
I415189
sS'bonus_ratio'
p1683
F0.5351147660638778
sS'long_term_incentive_ratio'
p1684
F0.18729016812235721
sg33
I1868758
sS'salary_ratio'
p1685
F0.22217376460729532
sg35
g13
sg36
F1.183673469387755
ssS'TAYLOR MITCHELL S'
p1686
(dp1687
g3
I533
sg4
I227449
sS'loan_advances_ratio'
p1688
F0.0
sg6
I0
sg7
I00
sg8
I0
sg9
S'mitchell.taylor@enron.com'
p1689
sg11
I0
sg12
g13
sg14
I300
sg15
I0
sg16
I29
sg17
I0
sg18
I0
sS'director_fees_ratio'
p1690
F0.0
sg20
I600000
sS'expenses_ratio'
p1691
F0.0
sg22
I3745048
sg23
I0
sg24
F0.0
sS'deferred_income_ratio'
p1692
F0.0
sg26
I0
sS'deferral_payments_ratio'
p1693
F0.20816024702950497
sg28
I563798
sS'other_ratio'
p1694
F0.0
sg30
I265214
sS'bonus_ratio'
p1695
F0.5491171568910085
sS'long_term_incentive_ratio'
p1696
F0.0
sg33
I1092663
sS'salary_ratio'
p1697
F0.24272259607948654
sg35
I3181250
sg36
F0.0
ssS'DONAHUE JR JEFFREY M'
p1698
(dp1699
g3
I865
sg4
I0
sS'loan_advances_ratio'
p1700
F0.0
sg6
I96268
sg7
I00
sg8
I-300000
sg9
S'jeff.donahue@enron.com'
p1701
sg11
I0
sg12
g13
sg14
I772
sg15
I0
sg16
I22
sg17
I891
sg18
I0
sS'director_fees_ratio'
p1702
F0.0
sg20
I800000
sS'expenses_ratio'
p1703
F0.1099250936329588
sg22
I1080988
sg23
I188
sg24
F0.012716763005780347
sS'deferred_income_ratio'
p1704
F-0.3425596053713346
sg26
I11
sS'deferral_payments_ratio'
p1705
F0.0
sg28
I315068
sS'other_ratio'
p1706
F0.0010174020279528637
sg30
I278601
sS'bonus_ratio'
p1707
F0.9134922809902256
sS'long_term_incentive_ratio'
p1708
F0.0
sg33
I875760
sS'salary_ratio'
p1709
F0.3181248287201973
sg35
I765920
sg36
F8.545454545454545
ssS'GLISAN JR BEN F'
p1710
(dp1711
g3
I873
sg4
I0
sS'loan_advances_ratio'
p1712
F0.0
sg6
I125978
sg7
I01
sg8
I0
sg9
S'ben.glisan@enron.com'
p1713
sg11
I71023
sg12
g13
sg14
I874
sg15
I0
sg16
I16
sg17
I200308
sg18
I0
sS'director_fees_ratio'
p1714
F0.0
sg20
I600000
sS'expenses_ratio'
p1715
F0.09901720056213864
sg22
I778546
sg23
I52
sg24
F0.006872852233676976
sS'deferred_income_ratio'
p1716
F0.0
sg26
I6
sS'deferral_payments_ratio'
p1717
F0.0
sg28
I393818
sS'other_ratio'
p1718
F0.1574396911381421
sg30
I274975
sS'bonus_ratio'
p1719
F0.4715928204709012
sS'long_term_incentive_ratio'
p1720
F0.055823228147174685
sg33
I1272284
sS'salary_ratio'
p1721
F0.21612705968164342
sg35
I384728
sg36
F3.25
ss.