(lp0
S'poi'
p1
aS'salary'
p2
aS'total_payments'
p3
aS'exercised_stock_options'
p4
aS'restricted_stock'
p5
aS'restricted_stock_deferred'
p6
aS'total_stock_value'
p7
aS'expenses'
p8
aS'from_messages'
p9
aS'other'
p10
aS'from_this_person_to_poi'
p11
aS'deferred_income'
p12
aS'from_poi_to_this_person'
p13
a.